
/home/rgesteve/projects/zlib-1.2.11/build/libz.so.1.2.11:     file format elf64-x86-64


Disassembly of section .init:

0000000000002058 <_init>:
_init():
    2058:	sub    $0x8,%rsp
    205c:	mov    0x21af85(%rip),%rax        # 21cfe8 <__gmon_start__>
    2063:	test   %rax,%rax
    2066:	je     206a <_init+0x12>
    2068:	callq  *%rax
    206a:	add    $0x8,%rsp
    206e:	retq   

Disassembly of section .plt:

0000000000002070 <.plt>:
    2070:	pushq  0x21af92(%rip)        # 21d008 <_GLOBAL_OFFSET_TABLE_+0x8>
    2076:	jmpq   *0x21af94(%rip)        # 21d010 <_GLOBAL_OFFSET_TABLE_+0x10>
    207c:	nopl   0x0(%rax)

0000000000002080 <crc32_z@plt>:
    2080:	jmpq   *0x21af92(%rip)        # 21d018 <crc32_z@@ZLIB_1.2.9+0x21a21d>
    2086:	pushq  $0x0
    208b:	jmpq   2070 <.plt>

0000000000002090 <gzvprintf@plt>:
    2090:	jmpq   *0x21af8a(%rip)        # 21d020 <gzvprintf@@ZLIB_1.2.7.1+0x210e56>
    2096:	pushq  $0x1
    209b:	jmpq   2070 <.plt>

00000000000020a0 <gzseek64@plt>:
    20a0:	jmpq   *0x21af82(%rip)        # 21d028 <gzseek64@@ZLIB_1.2.3.3+0x213251>
    20a6:	pushq  $0x2
    20ab:	jmpq   2070 <.plt>

00000000000020b0 <free@plt>:
    20b0:	jmpq   *0x21af7a(%rip)        # 21d030 <free@GLIBC_2.2.5>
    20b6:	pushq  $0x3
    20bb:	jmpq   2070 <.plt>

00000000000020c0 <__errno_location@plt>:
    20c0:	jmpq   *0x21af72(%rip)        # 21d038 <__errno_location@GLIBC_2.2.5>
    20c6:	pushq  $0x4
    20cb:	jmpq   2070 <.plt>

00000000000020d0 <inflate@plt>:
    20d0:	jmpq   *0x21af6a(%rip)        # 21d040 <inflate@@Base+0x2100d1>
    20d6:	pushq  $0x5
    20db:	jmpq   2070 <.plt>

00000000000020e0 <gzclose_r@plt>:
    20e0:	jmpq   *0x21af62(%rip)        # 21d048 <gzclose_r@@ZLIB_1.2.3.5+0x211a6f>
    20e6:	pushq  $0x6
    20eb:	jmpq   2070 <.plt>

00000000000020f0 <gzgetc@plt>:
    20f0:	jmpq   *0x21af5a(%rip)        # 21d050 <gzgetc@@Base+0x211fc4>
    20f6:	pushq  $0x7
    20fb:	jmpq   2070 <.plt>

0000000000002100 <vsnprintf@plt>:
    2100:	jmpq   *0x21af52(%rip)        # 21d058 <vsnprintf@GLIBC_2.2.5>
    2106:	pushq  $0x8
    210b:	jmpq   2070 <.plt>

0000000000002110 <crc32@plt>:
    2110:	jmpq   *0x21af4a(%rip)        # 21d060 <crc32@@Base+0x21a1dc>
    2116:	pushq  $0x9
    211b:	jmpq   2070 <.plt>

0000000000002120 <write@plt>:
    2120:	jmpq   *0x21af42(%rip)        # 21d068 <write@GLIBC_2.2.5>
    2126:	pushq  $0xa
    212b:	jmpq   2070 <.plt>

0000000000002130 <inflateResetKeep@plt>:
    2130:	jmpq   *0x21af3a(%rip)        # 21d070 <inflateResetKeep@@ZLIB_1.2.5.2+0x210802>
    2136:	pushq  $0xb
    213b:	jmpq   2070 <.plt>

0000000000002140 <strlen@plt>:
    2140:	jmpq   *0x21af32(%rip)        # 21d078 <strlen@GLIBC_2.2.5>
    2146:	pushq  $0xc
    214b:	jmpq   2070 <.plt>

0000000000002150 <__stack_chk_fail@plt>:
    2150:	jmpq   *0x21af2a(%rip)        # 21d080 <__stack_chk_fail@GLIBC_2.4>
    2156:	pushq  $0xd
    215b:	jmpq   2070 <.plt>

0000000000002160 <snprintf@plt>:
    2160:	jmpq   *0x21af22(%rip)        # 21d088 <snprintf@GLIBC_2.2.5>
    2166:	pushq  $0xe
    216b:	jmpq   2070 <.plt>

0000000000002170 <deflateReset@plt>:
    2170:	jmpq   *0x21af1a(%rip)        # 21d090 <deflateReset@@Base+0x218764>
    2176:	pushq  $0xf
    217b:	jmpq   2070 <.plt>

0000000000002180 <deflate@plt>:
    2180:	jmpq   *0x21af12(%rip)        # 21d098 <deflate@@Base+0x217f90>
    2186:	pushq  $0x10
    218b:	jmpq   2070 <.plt>

0000000000002190 <memset@plt>:
    2190:	jmpq   *0x21af0a(%rip)        # 21d0a0 <memset@GLIBC_2.2.5>
    2196:	pushq  $0x11
    219b:	jmpq   2070 <.plt>

00000000000021a0 <close@plt>:
    21a0:	jmpq   *0x21af02(%rip)        # 21d0a8 <close@GLIBC_2.2.5>
    21a6:	pushq  $0x12
    21ab:	jmpq   2070 <.plt>

00000000000021b0 <gztell64@plt>:
    21b0:	jmpq   *0x21aefa(%rip)        # 21d0b0 <gztell64@@ZLIB_1.2.3.3+0x212ff8>
    21b6:	pushq  $0x13
    21bb:	jmpq   2070 <.plt>

00000000000021c0 <deflateInit2_@plt>:
    21c0:	jmpq   *0x21aef2(%rip)        # 21d0b8 <deflateInit2_@@Base+0x2191d1>
    21c6:	pushq  $0x14
    21cb:	jmpq   2070 <.plt>

00000000000021d0 <memchr@plt>:
    21d0:	jmpq   *0x21aeea(%rip)        # 21d0c0 <memchr@GLIBC_2.2.5>
    21d6:	pushq  $0x15
    21db:	jmpq   2070 <.plt>

00000000000021e0 <read@plt>:
    21e0:	jmpq   *0x21aee2(%rip)        # 21d0c8 <read@GLIBC_2.2.5>
    21e6:	pushq  $0x16
    21eb:	jmpq   2070 <.plt>

00000000000021f0 <deflateParams@plt>:
    21f0:	jmpq   *0x21aeda(%rip)        # 21d0d0 <deflateParams@@Base+0x2185b4>
    21f6:	pushq  $0x17
    21fb:	jmpq   2070 <.plt>

0000000000002200 <deflateInit_@plt>:
    2200:	jmpq   *0x21aed2(%rip)        # 21d0d8 <deflateInit_@@Base+0x219239>
    2206:	pushq  $0x18
    220b:	jmpq   2070 <.plt>

0000000000002210 <memcpy@plt>:
    2210:	jmpq   *0x21aeca(%rip)        # 21d0e0 <memcpy@GLIBC_2.14>
    2216:	pushq  $0x19
    221b:	jmpq   2070 <.plt>

0000000000002220 <uncompress2@plt>:
    2220:	jmpq   *0x21aec2(%rip)        # 21d0e8 <uncompress2@@ZLIB_1.2.9+0x206f48>
    2226:	pushq  $0x1a
    222b:	jmpq   2070 <.plt>

0000000000002230 <inflateEnd@plt>:
    2230:	jmpq   *0x21aeba(%rip)        # 21d0f0 <inflateEnd@@Base+0x20dc9d>
    2236:	pushq  $0x1b
    223b:	jmpq   2070 <.plt>

0000000000002240 <adler32@plt>:
    2240:	jmpq   *0x21aeb2(%rip)        # 21d0f8 <adler32@@Base+0x21a70e>
    2246:	pushq  $0x1c
    224b:	jmpq   2070 <.plt>

0000000000002250 <malloc@plt>:
    2250:	jmpq   *0x21aeaa(%rip)        # 21d100 <malloc@GLIBC_2.2.5>
    2256:	pushq  $0x1d
    225b:	jmpq   2070 <.plt>

0000000000002260 <gzclose_w@plt>:
    2260:	jmpq   *0x21aea2(%rip)        # 21d108 <gzclose_w@@ZLIB_1.2.3.5+0x210a4b>
    2266:	pushq  $0x1e
    226b:	jmpq   2070 <.plt>

0000000000002270 <deflateEnd@plt>:
    2270:	jmpq   *0x21ae9a(%rip)        # 21d110 <deflateEnd@@Base+0x216d23>
    2276:	pushq  $0x1f
    227b:	jmpq   2070 <.plt>

0000000000002280 <gzrewind@plt>:
    2280:	jmpq   *0x21ae92(%rip)        # 21d118 <gzrewind@@Base+0x2133cd>
    2286:	pushq  $0x20
    228b:	jmpq   2070 <.plt>

0000000000002290 <gzoffset64@plt>:
    2290:	jmpq   *0x21ae8a(%rip)        # 21d120 <gzoffset64@@ZLIB_1.2.3.5+0x212fda>
    2296:	pushq  $0x21
    229b:	jmpq   2070 <.plt>

00000000000022a0 <inflateInit_@plt>:
    22a0:	jmpq   *0x21ae82(%rip)        # 21d128 <inflateInit_@@Base+0x210502>
    22a6:	pushq  $0x22
    22ab:	jmpq   2070 <.plt>

00000000000022b0 <compress2@plt>:
    22b0:	jmpq   *0x21ae7a(%rip)        # 21d130 <compress2@@Base+0x21a56f>
    22b6:	pushq  $0x23
    22bb:	jmpq   2070 <.plt>

00000000000022c0 <open@plt>:
    22c0:	jmpq   *0x21ae72(%rip)        # 21d138 <open@GLIBC_2.2.5>
    22c6:	pushq  $0x24
    22cb:	jmpq   2070 <.plt>

00000000000022d0 <inflateInit2_@plt>:
    22d0:	jmpq   *0x21ae6a(%rip)        # 21d140 <inflateInit2_@@Base+0x21065e>
    22d6:	pushq  $0x25
    22db:	jmpq   2070 <.plt>

00000000000022e0 <inflateReset@plt>:
    22e0:	jmpq   *0x21ae62(%rip)        # 21d148 <inflateReset@@Base+0x2107a3>
    22e6:	pushq  $0x26
    22eb:	jmpq   2070 <.plt>

00000000000022f0 <lseek64@plt>:
    22f0:	jmpq   *0x21ae5a(%rip)        # 21d150 <lseek64@GLIBC_2.2.5>
    22f6:	pushq  $0x27
    22fb:	jmpq   2070 <.plt>

0000000000002300 <deflateResetKeep@plt>:
    2300:	jmpq   *0x21ae52(%rip)        # 21d158 <deflateResetKeep@@ZLIB_1.2.5.2+0x21895d>
    2306:	pushq  $0x28
    230b:	jmpq   2070 <.plt>

0000000000002310 <inflateReset2@plt>:
    2310:	jmpq   *0x21ae4a(%rip)        # 21d160 <inflateReset2@@ZLIB_1.2.3.4+0x21075d>
    2316:	pushq  $0x29
    231b:	jmpq   2070 <.plt>

0000000000002320 <strerror@plt>:
    2320:	jmpq   *0x21ae42(%rip)        # 21d168 <strerror@GLIBC_2.2.5>
    2326:	pushq  $0x2a
    232b:	jmpq   2070 <.plt>

0000000000002330 <adler32_z@plt>:
    2330:	jmpq   *0x21ae3a(%rip)        # 21d170 <adler32_z@@ZLIB_1.2.9+0x21ad46>
    2336:	pushq  $0x2b
    233b:	jmpq   2070 <.plt>

Disassembly of section .plt.got:

0000000000002340 <__cxa_finalize@plt>:
    2340:	jmpq   *0x21acb2(%rip)        # 21cff8 <__cxa_finalize@GLIBC_2.2.5>
    2346:	xchg   %ax,%ax

Disassembly of section .text:

0000000000002350 <deregister_tm_clones>:
deregister_tm_clones():
    2350:	lea    0x21ae29(%rip),%rdi        # 21d180 <__TMC_END__>
    2357:	push   %rbp
    2358:	lea    0x21ae21(%rip),%rax        # 21d180 <__TMC_END__>
    235f:	cmp    %rdi,%rax
    2362:	mov    %rsp,%rbp
    2365:	je     2380 <deregister_tm_clones+0x30>
    2367:	mov    0x21ac72(%rip),%rax        # 21cfe0 <_ITM_deregisterTMCloneTable>
    236e:	test   %rax,%rax
    2371:	je     2380 <deregister_tm_clones+0x30>
    2373:	pop    %rbp
    2374:	jmpq   *%rax
    2376:	nopw   %cs:0x0(%rax,%rax,1)
    2380:	pop    %rbp
    2381:	retq   
    2382:	nopl   0x0(%rax)
    2386:	nopw   %cs:0x0(%rax,%rax,1)

0000000000002390 <register_tm_clones>:
register_tm_clones():
    2390:	lea    0x21ade9(%rip),%rdi        # 21d180 <__TMC_END__>
    2397:	lea    0x21ade2(%rip),%rsi        # 21d180 <__TMC_END__>
    239e:	push   %rbp
    239f:	sub    %rdi,%rsi
    23a2:	mov    %rsp,%rbp
    23a5:	sar    $0x3,%rsi
    23a9:	mov    %rsi,%rax
    23ac:	shr    $0x3f,%rax
    23b0:	add    %rax,%rsi
    23b3:	sar    %rsi
    23b6:	je     23d0 <register_tm_clones+0x40>
    23b8:	mov    0x21ac31(%rip),%rax        # 21cff0 <_ITM_registerTMCloneTable>
    23bf:	test   %rax,%rax
    23c2:	je     23d0 <register_tm_clones+0x40>
    23c4:	pop    %rbp
    23c5:	jmpq   *%rax
    23c7:	nopw   0x0(%rax,%rax,1)
    23d0:	pop    %rbp
    23d1:	retq   
    23d2:	nopl   0x0(%rax)
    23d6:	nopw   %cs:0x0(%rax,%rax,1)

00000000000023e0 <__do_global_dtors_aux>:
__do_global_dtors_aux():
    23e0:	cmpb   $0x0,0x21ad99(%rip)        # 21d180 <__TMC_END__>
    23e7:	jne    2418 <__do_global_dtors_aux+0x38>
    23e9:	cmpq   $0x0,0x21ac07(%rip)        # 21cff8 <__cxa_finalize@GLIBC_2.2.5>
    23f1:	push   %rbp
    23f2:	mov    %rsp,%rbp
    23f5:	je     2403 <__do_global_dtors_aux+0x23>
    23f7:	mov    0x21ad7a(%rip),%rdi        # 21d178 <__dso_handle>
    23fe:	callq  2340 <__cxa_finalize@plt>
    2403:	callq  2350 <deregister_tm_clones>
    2408:	movb   $0x1,0x21ad71(%rip)        # 21d180 <__TMC_END__>
    240f:	pop    %rbp
    2410:	retq   
    2411:	nopl   0x0(%rax)
    2418:	repz retq 
    241a:	nopw   0x0(%rax,%rax,1)

0000000000002420 <frame_dummy>:
frame_dummy():
    2420:	push   %rbp
    2421:	mov    %rsp,%rbp
    2424:	pop    %rbp
    2425:	jmpq   2390 <register_tm_clones>

000000000000242a <adler32_z>:
adler32_z():
/home/rgesteve/projects/zlib-1.2.11/build/../adler32.c:67
    242a:	push   %rbp
    242b:	mov    %rsp,%rbp
    242e:	mov    %rdi,-0x18(%rbp)
    2432:	mov    %rsi,-0x20(%rbp)
    2436:	mov    %rdx,-0x28(%rbp)
/home/rgesteve/projects/zlib-1.2.11/build/../adler32.c:72
    243a:	mov    -0x18(%rbp),%rax
    243e:	shr    $0x10,%rax
    2442:	and    $0xffff,%eax
    2447:	mov    %rax,-0x8(%rbp)
/home/rgesteve/projects/zlib-1.2.11/build/../adler32.c:73
    244b:	andq   $0xffff,-0x18(%rbp)
/home/rgesteve/projects/zlib-1.2.11/build/../adler32.c:76
    2453:	cmpq   $0x1,-0x28(%rbp)
    2458:	jne    24a5 <adler32_z+0x7b>
/home/rgesteve/projects/zlib-1.2.11/build/../adler32.c:77
    245a:	mov    -0x20(%rbp),%rax
    245e:	movzbl (%rax),%eax
    2461:	movzbl %al,%eax
    2464:	add    %rax,-0x18(%rbp)
/home/rgesteve/projects/zlib-1.2.11/build/../adler32.c:78
    2468:	cmpq   $0xfff0,-0x18(%rbp)
    2470:	jbe    247a <adler32_z+0x50>
/home/rgesteve/projects/zlib-1.2.11/build/../adler32.c:79
    2472:	subq   $0xfff1,-0x18(%rbp)
/home/rgesteve/projects/zlib-1.2.11/build/../adler32.c:80
    247a:	mov    -0x18(%rbp),%rax
    247e:	add    %rax,-0x8(%rbp)
/home/rgesteve/projects/zlib-1.2.11/build/../adler32.c:81
    2482:	cmpq   $0xfff0,-0x8(%rbp)
    248a:	jbe    2494 <adler32_z+0x6a>
/home/rgesteve/projects/zlib-1.2.11/build/../adler32.c:82
    248c:	subq   $0xfff1,-0x8(%rbp)
/home/rgesteve/projects/zlib-1.2.11/build/../adler32.c:83
    2494:	mov    -0x8(%rbp),%rax
    2498:	shl    $0x10,%rax
    249c:	or     -0x18(%rbp),%rax
    24a0:	jmpq   29e8 <adler32_z+0x5be>
/home/rgesteve/projects/zlib-1.2.11/build/../adler32.c:87
    24a5:	cmpq   $0x0,-0x20(%rbp)
    24aa:	jne    24b6 <adler32_z+0x8c>
/home/rgesteve/projects/zlib-1.2.11/build/../adler32.c:88
    24ac:	mov    $0x1,%eax
    24b1:	jmpq   29e8 <adler32_z+0x5be>
/home/rgesteve/projects/zlib-1.2.11/build/../adler32.c:91
    24b6:	cmpq   $0xf,-0x28(%rbp)
    24bb:	ja     2772 <adler32_z+0x348>
/home/rgesteve/projects/zlib-1.2.11/build/../adler32.c:92
    24c1:	jmp    24e1 <adler32_z+0xb7>
/home/rgesteve/projects/zlib-1.2.11/build/../adler32.c:93
    24c3:	mov    -0x20(%rbp),%rax
    24c7:	lea    0x1(%rax),%rdx
    24cb:	mov    %rdx,-0x20(%rbp)
    24cf:	movzbl (%rax),%eax
    24d2:	movzbl %al,%eax
    24d5:	add    %rax,-0x18(%rbp)
/home/rgesteve/projects/zlib-1.2.11/build/../adler32.c:94
    24d9:	mov    -0x18(%rbp),%rax
    24dd:	add    %rax,-0x8(%rbp)
/home/rgesteve/projects/zlib-1.2.11/build/../adler32.c:92
    24e1:	mov    -0x28(%rbp),%rax
    24e5:	lea    -0x1(%rax),%rdx
    24e9:	mov    %rdx,-0x28(%rbp)
    24ed:	test   %rax,%rax
    24f0:	jne    24c3 <adler32_z+0x99>
/home/rgesteve/projects/zlib-1.2.11/build/../adler32.c:96
    24f2:	cmpq   $0xfff0,-0x18(%rbp)
    24fa:	jbe    2504 <adler32_z+0xda>
/home/rgesteve/projects/zlib-1.2.11/build/../adler32.c:97
    24fc:	subq   $0xfff1,-0x18(%rbp)
/home/rgesteve/projects/zlib-1.2.11/build/../adler32.c:98
    2504:	mov    -0x8(%rbp),%rcx
    2508:	movabs $0xf00e10d2fc5cd,%rdx
    2512:	mov    %rcx,%rax
    2515:	mul    %rdx
    2518:	mov    %rcx,%rax
    251b:	sub    %rdx,%rax
    251e:	shr    %rax
    2521:	add    %rdx,%rax
    2524:	shr    $0xf,%rax
    2528:	imul   $0xfff1,%rax,%rax
    252f:	sub    %rax,%rcx
    2532:	mov    %rcx,%rax
    2535:	mov    %rax,-0x8(%rbp)
/home/rgesteve/projects/zlib-1.2.11/build/../adler32.c:99
    2539:	mov    -0x8(%rbp),%rax
    253d:	shl    $0x10,%rax
    2541:	or     -0x18(%rbp),%rax
    2545:	jmpq   29e8 <adler32_z+0x5be>
/home/rgesteve/projects/zlib-1.2.11/build/../adler32.c:104
    254a:	subq   $0x15b0,-0x28(%rbp)
/home/rgesteve/projects/zlib-1.2.11/build/../adler32.c:105
    2552:	movl   $0x15b,-0xc(%rbp)
/home/rgesteve/projects/zlib-1.2.11/build/../adler32.c:107 (discriminator 1)
    2559:	mov    -0x20(%rbp),%rax
    255d:	movzbl (%rax),%eax
    2560:	movzbl %al,%eax
    2563:	add    %rax,-0x18(%rbp)
    2567:	mov    -0x18(%rbp),%rax
    256b:	add    %rax,-0x8(%rbp)
    256f:	mov    -0x20(%rbp),%rax
    2573:	add    $0x1,%rax
    2577:	movzbl (%rax),%eax
    257a:	movzbl %al,%eax
    257d:	add    %rax,-0x18(%rbp)
    2581:	mov    -0x18(%rbp),%rax
    2585:	add    %rax,-0x8(%rbp)
    2589:	mov    -0x20(%rbp),%rax
    258d:	add    $0x2,%rax
    2591:	movzbl (%rax),%eax
    2594:	movzbl %al,%eax
    2597:	add    %rax,-0x18(%rbp)
    259b:	mov    -0x18(%rbp),%rax
    259f:	add    %rax,-0x8(%rbp)
    25a3:	mov    -0x20(%rbp),%rax
    25a7:	add    $0x3,%rax
    25ab:	movzbl (%rax),%eax
    25ae:	movzbl %al,%eax
    25b1:	add    %rax,-0x18(%rbp)
    25b5:	mov    -0x18(%rbp),%rax
    25b9:	add    %rax,-0x8(%rbp)
    25bd:	mov    -0x20(%rbp),%rax
    25c1:	add    $0x4,%rax
    25c5:	movzbl (%rax),%eax
    25c8:	movzbl %al,%eax
    25cb:	add    %rax,-0x18(%rbp)
    25cf:	mov    -0x18(%rbp),%rax
    25d3:	add    %rax,-0x8(%rbp)
    25d7:	mov    -0x20(%rbp),%rax
    25db:	add    $0x5,%rax
    25df:	movzbl (%rax),%eax
    25e2:	movzbl %al,%eax
    25e5:	add    %rax,-0x18(%rbp)
    25e9:	mov    -0x18(%rbp),%rax
    25ed:	add    %rax,-0x8(%rbp)
    25f1:	mov    -0x20(%rbp),%rax
    25f5:	add    $0x6,%rax
    25f9:	movzbl (%rax),%eax
    25fc:	movzbl %al,%eax
    25ff:	add    %rax,-0x18(%rbp)
    2603:	mov    -0x18(%rbp),%rax
    2607:	add    %rax,-0x8(%rbp)
    260b:	mov    -0x20(%rbp),%rax
    260f:	add    $0x7,%rax
    2613:	movzbl (%rax),%eax
    2616:	movzbl %al,%eax
    2619:	add    %rax,-0x18(%rbp)
    261d:	mov    -0x18(%rbp),%rax
    2621:	add    %rax,-0x8(%rbp)
    2625:	mov    -0x20(%rbp),%rax
    2629:	add    $0x8,%rax
    262d:	movzbl (%rax),%eax
    2630:	movzbl %al,%eax
    2633:	add    %rax,-0x18(%rbp)
    2637:	mov    -0x18(%rbp),%rax
    263b:	add    %rax,-0x8(%rbp)
    263f:	mov    -0x20(%rbp),%rax
    2643:	add    $0x9,%rax
    2647:	movzbl (%rax),%eax
    264a:	movzbl %al,%eax
    264d:	add    %rax,-0x18(%rbp)
    2651:	mov    -0x18(%rbp),%rax
    2655:	add    %rax,-0x8(%rbp)
    2659:	mov    -0x20(%rbp),%rax
    265d:	add    $0xa,%rax
    2661:	movzbl (%rax),%eax
    2664:	movzbl %al,%eax
    2667:	add    %rax,-0x18(%rbp)
    266b:	mov    -0x18(%rbp),%rax
    266f:	add    %rax,-0x8(%rbp)
    2673:	mov    -0x20(%rbp),%rax
    2677:	add    $0xb,%rax
    267b:	movzbl (%rax),%eax
    267e:	movzbl %al,%eax
    2681:	add    %rax,-0x18(%rbp)
    2685:	mov    -0x18(%rbp),%rax
    2689:	add    %rax,-0x8(%rbp)
    268d:	mov    -0x20(%rbp),%rax
    2691:	add    $0xc,%rax
    2695:	movzbl (%rax),%eax
    2698:	movzbl %al,%eax
    269b:	add    %rax,-0x18(%rbp)
    269f:	mov    -0x18(%rbp),%rax
    26a3:	add    %rax,-0x8(%rbp)
    26a7:	mov    -0x20(%rbp),%rax
    26ab:	add    $0xd,%rax
    26af:	movzbl (%rax),%eax
    26b2:	movzbl %al,%eax
    26b5:	add    %rax,-0x18(%rbp)
    26b9:	mov    -0x18(%rbp),%rax
    26bd:	add    %rax,-0x8(%rbp)
    26c1:	mov    -0x20(%rbp),%rax
    26c5:	add    $0xe,%rax
    26c9:	movzbl (%rax),%eax
    26cc:	movzbl %al,%eax
    26cf:	add    %rax,-0x18(%rbp)
    26d3:	mov    -0x18(%rbp),%rax
    26d7:	add    %rax,-0x8(%rbp)
    26db:	mov    -0x20(%rbp),%rax
    26df:	add    $0xf,%rax
    26e3:	movzbl (%rax),%eax
    26e6:	movzbl %al,%eax
    26e9:	add    %rax,-0x18(%rbp)
    26ed:	mov    -0x18(%rbp),%rax
    26f1:	add    %rax,-0x8(%rbp)
/home/rgesteve/projects/zlib-1.2.11/build/../adler32.c:108 (discriminator 1)
    26f5:	addq   $0x10,-0x20(%rbp)
/home/rgesteve/projects/zlib-1.2.11/build/../adler32.c:109 (discriminator 1)
    26fa:	subl   $0x1,-0xc(%rbp)
    26fe:	cmpl   $0x0,-0xc(%rbp)
    2702:	jne    2559 <adler32_z+0x12f>
/home/rgesteve/projects/zlib-1.2.11/build/../adler32.c:110
    2708:	mov    -0x18(%rbp),%rcx
    270c:	movabs $0xf00e10d2fc5cd,%rdx
    2716:	mov    %rcx,%rax
    2719:	mul    %rdx
    271c:	mov    %rcx,%rax
    271f:	sub    %rdx,%rax
    2722:	shr    %rax
    2725:	add    %rdx,%rax
    2728:	shr    $0xf,%rax
    272c:	imul   $0xfff1,%rax,%rax
    2733:	sub    %rax,%rcx
    2736:	mov    %rcx,%rax
    2739:	mov    %rax,-0x18(%rbp)
/home/rgesteve/projects/zlib-1.2.11/build/../adler32.c:111
    273d:	mov    -0x8(%rbp),%rcx
    2741:	movabs $0xf00e10d2fc5cd,%rdx
    274b:	mov    %rcx,%rax
    274e:	mul    %rdx
    2751:	mov    %rcx,%rax
    2754:	sub    %rdx,%rax
    2757:	shr    %rax
    275a:	add    %rdx,%rax
    275d:	shr    $0xf,%rax
    2761:	imul   $0xfff1,%rax,%rax
    2768:	sub    %rax,%rcx
    276b:	mov    %rcx,%rax
    276e:	mov    %rax,-0x8(%rbp)
/home/rgesteve/projects/zlib-1.2.11/build/../adler32.c:103
    2772:	cmpq   $0x15af,-0x28(%rbp)
    277a:	ja     254a <adler32_z+0x120>
/home/rgesteve/projects/zlib-1.2.11/build/../adler32.c:115
    2780:	cmpq   $0x0,-0x28(%rbp)
    2785:	je     29dc <adler32_z+0x5b2>
/home/rgesteve/projects/zlib-1.2.11/build/../adler32.c:116
    278b:	jmpq   2936 <adler32_z+0x50c>
/home/rgesteve/projects/zlib-1.2.11/build/../adler32.c:117
    2790:	subq   $0x10,-0x28(%rbp)
/home/rgesteve/projects/zlib-1.2.11/build/../adler32.c:118
    2795:	mov    -0x20(%rbp),%rax
    2799:	movzbl (%rax),%eax
    279c:	movzbl %al,%eax
    279f:	add    %rax,-0x18(%rbp)
    27a3:	mov    -0x18(%rbp),%rax
    27a7:	add    %rax,-0x8(%rbp)
    27ab:	mov    -0x20(%rbp),%rax
    27af:	add    $0x1,%rax
    27b3:	movzbl (%rax),%eax
    27b6:	movzbl %al,%eax
    27b9:	add    %rax,-0x18(%rbp)
    27bd:	mov    -0x18(%rbp),%rax
    27c1:	add    %rax,-0x8(%rbp)
    27c5:	mov    -0x20(%rbp),%rax
    27c9:	add    $0x2,%rax
    27cd:	movzbl (%rax),%eax
    27d0:	movzbl %al,%eax
    27d3:	add    %rax,-0x18(%rbp)
    27d7:	mov    -0x18(%rbp),%rax
    27db:	add    %rax,-0x8(%rbp)
    27df:	mov    -0x20(%rbp),%rax
    27e3:	add    $0x3,%rax
    27e7:	movzbl (%rax),%eax
    27ea:	movzbl %al,%eax
    27ed:	add    %rax,-0x18(%rbp)
    27f1:	mov    -0x18(%rbp),%rax
    27f5:	add    %rax,-0x8(%rbp)
    27f9:	mov    -0x20(%rbp),%rax
    27fd:	add    $0x4,%rax
    2801:	movzbl (%rax),%eax
    2804:	movzbl %al,%eax
    2807:	add    %rax,-0x18(%rbp)
    280b:	mov    -0x18(%rbp),%rax
    280f:	add    %rax,-0x8(%rbp)
    2813:	mov    -0x20(%rbp),%rax
    2817:	add    $0x5,%rax
    281b:	movzbl (%rax),%eax
    281e:	movzbl %al,%eax
    2821:	add    %rax,-0x18(%rbp)
    2825:	mov    -0x18(%rbp),%rax
    2829:	add    %rax,-0x8(%rbp)
    282d:	mov    -0x20(%rbp),%rax
    2831:	add    $0x6,%rax
    2835:	movzbl (%rax),%eax
    2838:	movzbl %al,%eax
    283b:	add    %rax,-0x18(%rbp)
    283f:	mov    -0x18(%rbp),%rax
    2843:	add    %rax,-0x8(%rbp)
    2847:	mov    -0x20(%rbp),%rax
    284b:	add    $0x7,%rax
    284f:	movzbl (%rax),%eax
    2852:	movzbl %al,%eax
    2855:	add    %rax,-0x18(%rbp)
    2859:	mov    -0x18(%rbp),%rax
    285d:	add    %rax,-0x8(%rbp)
    2861:	mov    -0x20(%rbp),%rax
    2865:	add    $0x8,%rax
    2869:	movzbl (%rax),%eax
    286c:	movzbl %al,%eax
    286f:	add    %rax,-0x18(%rbp)
    2873:	mov    -0x18(%rbp),%rax
    2877:	add    %rax,-0x8(%rbp)
    287b:	mov    -0x20(%rbp),%rax
    287f:	add    $0x9,%rax
    2883:	movzbl (%rax),%eax
    2886:	movzbl %al,%eax
    2889:	add    %rax,-0x18(%rbp)
    288d:	mov    -0x18(%rbp),%rax
    2891:	add    %rax,-0x8(%rbp)
    2895:	mov    -0x20(%rbp),%rax
    2899:	add    $0xa,%rax
    289d:	movzbl (%rax),%eax
    28a0:	movzbl %al,%eax
    28a3:	add    %rax,-0x18(%rbp)
    28a7:	mov    -0x18(%rbp),%rax
    28ab:	add    %rax,-0x8(%rbp)
    28af:	mov    -0x20(%rbp),%rax
    28b3:	add    $0xb,%rax
    28b7:	movzbl (%rax),%eax
    28ba:	movzbl %al,%eax
    28bd:	add    %rax,-0x18(%rbp)
    28c1:	mov    -0x18(%rbp),%rax
    28c5:	add    %rax,-0x8(%rbp)
    28c9:	mov    -0x20(%rbp),%rax
    28cd:	add    $0xc,%rax
    28d1:	movzbl (%rax),%eax
    28d4:	movzbl %al,%eax
    28d7:	add    %rax,-0x18(%rbp)
    28db:	mov    -0x18(%rbp),%rax
    28df:	add    %rax,-0x8(%rbp)
    28e3:	mov    -0x20(%rbp),%rax
    28e7:	add    $0xd,%rax
    28eb:	movzbl (%rax),%eax
    28ee:	movzbl %al,%eax
    28f1:	add    %rax,-0x18(%rbp)
    28f5:	mov    -0x18(%rbp),%rax
    28f9:	add    %rax,-0x8(%rbp)
    28fd:	mov    -0x20(%rbp),%rax
    2901:	add    $0xe,%rax
    2905:	movzbl (%rax),%eax
    2908:	movzbl %al,%eax
    290b:	add    %rax,-0x18(%rbp)
    290f:	mov    -0x18(%rbp),%rax
    2913:	add    %rax,-0x8(%rbp)
    2917:	mov    -0x20(%rbp),%rax
    291b:	add    $0xf,%rax
    291f:	movzbl (%rax),%eax
    2922:	movzbl %al,%eax
    2925:	add    %rax,-0x18(%rbp)
    2929:	mov    -0x18(%rbp),%rax
    292d:	add    %rax,-0x8(%rbp)
/home/rgesteve/projects/zlib-1.2.11/build/../adler32.c:119
    2931:	addq   $0x10,-0x20(%rbp)
/home/rgesteve/projects/zlib-1.2.11/build/../adler32.c:116
    2936:	cmpq   $0xf,-0x28(%rbp)
    293b:	ja     2790 <adler32_z+0x366>
/home/rgesteve/projects/zlib-1.2.11/build/../adler32.c:121
    2941:	jmp    2961 <adler32_z+0x537>
/home/rgesteve/projects/zlib-1.2.11/build/../adler32.c:122
    2943:	mov    -0x20(%rbp),%rax
    2947:	lea    0x1(%rax),%rdx
    294b:	mov    %rdx,-0x20(%rbp)
    294f:	movzbl (%rax),%eax
    2952:	movzbl %al,%eax
    2955:	add    %rax,-0x18(%rbp)
/home/rgesteve/projects/zlib-1.2.11/build/../adler32.c:123
    2959:	mov    -0x18(%rbp),%rax
    295d:	add    %rax,-0x8(%rbp)
/home/rgesteve/projects/zlib-1.2.11/build/../adler32.c:121
    2961:	mov    -0x28(%rbp),%rax
    2965:	lea    -0x1(%rax),%rdx
    2969:	mov    %rdx,-0x28(%rbp)
    296d:	test   %rax,%rax
    2970:	jne    2943 <adler32_z+0x519>
/home/rgesteve/projects/zlib-1.2.11/build/../adler32.c:125
    2972:	mov    -0x18(%rbp),%rcx
    2976:	movabs $0xf00e10d2fc5cd,%rdx
    2980:	mov    %rcx,%rax
    2983:	mul    %rdx
    2986:	mov    %rcx,%rax
    2989:	sub    %rdx,%rax
    298c:	shr    %rax
    298f:	add    %rdx,%rax
    2992:	shr    $0xf,%rax
    2996:	imul   $0xfff1,%rax,%rax
    299d:	sub    %rax,%rcx
    29a0:	mov    %rcx,%rax
    29a3:	mov    %rax,-0x18(%rbp)
/home/rgesteve/projects/zlib-1.2.11/build/../adler32.c:126
    29a7:	mov    -0x8(%rbp),%rcx
    29ab:	movabs $0xf00e10d2fc5cd,%rdx
    29b5:	mov    %rcx,%rax
    29b8:	mul    %rdx
    29bb:	mov    %rcx,%rax
    29be:	sub    %rdx,%rax
    29c1:	shr    %rax
    29c4:	add    %rdx,%rax
    29c7:	shr    $0xf,%rax
    29cb:	imul   $0xfff1,%rax,%rax
    29d2:	sub    %rax,%rcx
    29d5:	mov    %rcx,%rax
    29d8:	mov    %rax,-0x8(%rbp)
/home/rgesteve/projects/zlib-1.2.11/build/../adler32.c:130
    29dc:	mov    -0x8(%rbp),%rax
    29e0:	shl    $0x10,%rax
    29e4:	or     -0x18(%rbp),%rax
/home/rgesteve/projects/zlib-1.2.11/build/../adler32.c:131
    29e8:	pop    %rbp
    29e9:	retq   

00000000000029ea <adler32>:
adler32():
/home/rgesteve/projects/zlib-1.2.11/build/../adler32.c:138
    29ea:	push   %rbp
    29eb:	mov    %rsp,%rbp
    29ee:	sub    $0x20,%rsp
    29f2:	mov    %rdi,-0x8(%rbp)
    29f6:	mov    %rsi,-0x10(%rbp)
    29fa:	mov    %edx,-0x14(%rbp)
/home/rgesteve/projects/zlib-1.2.11/build/../adler32.c:139
    29fd:	mov    -0x14(%rbp),%edx
    2a00:	mov    -0x10(%rbp),%rcx
    2a04:	mov    -0x8(%rbp),%rax
    2a08:	mov    %rcx,%rsi
    2a0b:	mov    %rax,%rdi
    2a0e:	callq  2330 <adler32_z@plt>
/home/rgesteve/projects/zlib-1.2.11/build/../adler32.c:140
    2a13:	leaveq 
    2a14:	retq   

0000000000002a15 <adler32_combine_>:
adler32_combine_():
/home/rgesteve/projects/zlib-1.2.11/build/../adler32.c:147
    2a15:	push   %rbp
    2a16:	mov    %rsp,%rbp
    2a19:	mov    %rdi,-0x28(%rbp)
    2a1d:	mov    %rsi,-0x30(%rbp)
    2a21:	mov    %rdx,-0x38(%rbp)
/home/rgesteve/projects/zlib-1.2.11/build/../adler32.c:153
    2a25:	cmpq   $0x0,-0x38(%rbp)
    2a2a:	jns    2a36 <adler32_combine_+0x21>
/home/rgesteve/projects/zlib-1.2.11/build/../adler32.c:154
    2a2c:	mov    $0xffffffff,%eax
    2a31:	jmpq   2b65 <adler32_combine_+0x150>
/home/rgesteve/projects/zlib-1.2.11/build/../adler32.c:157
    2a36:	mov    -0x38(%rbp),%rcx
    2a3a:	movabs $0x800780708697e2e7,%rdx
    2a44:	mov    %rcx,%rax
    2a47:	imul   %rdx
    2a4a:	lea    (%rdx,%rcx,1),%rax
    2a4e:	sar    $0xf,%rax
    2a52:	mov    %rax,%rdx
    2a55:	mov    %rcx,%rax
    2a58:	sar    $0x3f,%rax
    2a5c:	sub    %rax,%rdx
    2a5f:	mov    %rdx,%rax
    2a62:	imul   $0xfff1,%rax,%rax
    2a69:	sub    %rax,%rcx
    2a6c:	mov    %rcx,%rax
    2a6f:	mov    %rax,-0x38(%rbp)
/home/rgesteve/projects/zlib-1.2.11/build/../adler32.c:158
    2a73:	mov    -0x38(%rbp),%rax
    2a77:	mov    %eax,-0x14(%rbp)
/home/rgesteve/projects/zlib-1.2.11/build/../adler32.c:159
    2a7a:	mov    -0x28(%rbp),%rax
    2a7e:	movzwl %ax,%eax
    2a81:	mov    %rax,-0x10(%rbp)
/home/rgesteve/projects/zlib-1.2.11/build/../adler32.c:160
    2a85:	mov    -0x14(%rbp),%eax
    2a88:	mov    -0x10(%rbp),%rdx
    2a8c:	imul   %rdx,%rax
    2a90:	mov    %rax,-0x8(%rbp)
/home/rgesteve/projects/zlib-1.2.11/build/../adler32.c:161
    2a94:	mov    -0x8(%rbp),%rcx
    2a98:	movabs $0xf00e10d2fc5cd,%rdx
    2aa2:	mov    %rcx,%rax
    2aa5:	mul    %rdx
    2aa8:	mov    %rcx,%rax
    2aab:	sub    %rdx,%rax
    2aae:	shr    %rax
    2ab1:	add    %rdx,%rax
    2ab4:	shr    $0xf,%rax
    2ab8:	imul   $0xfff1,%rax,%rax
    2abf:	sub    %rax,%rcx
    2ac2:	mov    %rcx,%rax
    2ac5:	mov    %rax,-0x8(%rbp)
/home/rgesteve/projects/zlib-1.2.11/build/../adler32.c:162
    2ac9:	mov    -0x30(%rbp),%rax
    2acd:	movzwl %ax,%edx
    2ad0:	mov    -0x10(%rbp),%rax
    2ad4:	add    %rdx,%rax
    2ad7:	add    $0xfff0,%rax
    2add:	mov    %rax,-0x10(%rbp)
/home/rgesteve/projects/zlib-1.2.11/build/../adler32.c:163
    2ae1:	mov    -0x28(%rbp),%rax
    2ae5:	shr    $0x10,%rax
    2ae9:	movzwl %ax,%edx
    2aec:	mov    -0x30(%rbp),%rax
    2af0:	shr    $0x10,%rax
    2af4:	movzwl %ax,%eax
    2af7:	add    %rax,%rdx
    2afa:	mov    -0x14(%rbp),%eax
    2afd:	sub    %rax,%rdx
    2b00:	mov    -0x8(%rbp),%rax
    2b04:	add    %rdx,%rax
    2b07:	add    $0xfff1,%rax
    2b0d:	mov    %rax,-0x8(%rbp)
/home/rgesteve/projects/zlib-1.2.11/build/../adler32.c:164
    2b11:	cmpq   $0xfff0,-0x10(%rbp)
    2b19:	jbe    2b23 <adler32_combine_+0x10e>
/home/rgesteve/projects/zlib-1.2.11/build/../adler32.c:164 (discriminator 1)
    2b1b:	subq   $0xfff1,-0x10(%rbp)
/home/rgesteve/projects/zlib-1.2.11/build/../adler32.c:165
    2b23:	cmpq   $0xfff0,-0x10(%rbp)
    2b2b:	jbe    2b35 <adler32_combine_+0x120>
/home/rgesteve/projects/zlib-1.2.11/build/../adler32.c:165 (discriminator 1)
    2b2d:	subq   $0xfff1,-0x10(%rbp)
/home/rgesteve/projects/zlib-1.2.11/build/../adler32.c:166
    2b35:	cmpq   $0x1ffe1,-0x8(%rbp)
    2b3d:	jbe    2b47 <adler32_combine_+0x132>
/home/rgesteve/projects/zlib-1.2.11/build/../adler32.c:166 (discriminator 1)
    2b3f:	subq   $0x1ffe2,-0x8(%rbp)
/home/rgesteve/projects/zlib-1.2.11/build/../adler32.c:167
    2b47:	cmpq   $0xfff0,-0x8(%rbp)
    2b4f:	jbe    2b59 <adler32_combine_+0x144>
/home/rgesteve/projects/zlib-1.2.11/build/../adler32.c:167 (discriminator 1)
    2b51:	subq   $0xfff1,-0x8(%rbp)
/home/rgesteve/projects/zlib-1.2.11/build/../adler32.c:168
    2b59:	mov    -0x8(%rbp),%rax
    2b5d:	shl    $0x10,%rax
    2b61:	or     -0x10(%rbp),%rax
/home/rgesteve/projects/zlib-1.2.11/build/../adler32.c:169
    2b65:	pop    %rbp
    2b66:	retq   

0000000000002b67 <adler32_combine>:
adler32_combine():
/home/rgesteve/projects/zlib-1.2.11/build/../adler32.c:176
    2b67:	push   %rbp
    2b68:	mov    %rsp,%rbp
    2b6b:	sub    $0x18,%rsp
    2b6f:	mov    %rdi,-0x8(%rbp)
    2b73:	mov    %rsi,-0x10(%rbp)
    2b77:	mov    %rdx,-0x18(%rbp)
/home/rgesteve/projects/zlib-1.2.11/build/../adler32.c:177
    2b7b:	mov    -0x18(%rbp),%rdx
    2b7f:	mov    -0x10(%rbp),%rcx
    2b83:	mov    -0x8(%rbp),%rax
    2b87:	mov    %rcx,%rsi
    2b8a:	mov    %rax,%rdi
    2b8d:	callq  2a15 <adler32_combine_>
/home/rgesteve/projects/zlib-1.2.11/build/../adler32.c:178
    2b92:	leaveq 
    2b93:	retq   

0000000000002b94 <adler32_combine64>:
adler32_combine64():
/home/rgesteve/projects/zlib-1.2.11/build/../adler32.c:184
    2b94:	push   %rbp
    2b95:	mov    %rsp,%rbp
    2b98:	sub    $0x18,%rsp
    2b9c:	mov    %rdi,-0x8(%rbp)
    2ba0:	mov    %rsi,-0x10(%rbp)
    2ba4:	mov    %rdx,-0x18(%rbp)
/home/rgesteve/projects/zlib-1.2.11/build/../adler32.c:185
    2ba8:	mov    -0x18(%rbp),%rdx
    2bac:	mov    -0x10(%rbp),%rcx
    2bb0:	mov    -0x8(%rbp),%rax
    2bb4:	mov    %rcx,%rsi
    2bb7:	mov    %rax,%rdi
    2bba:	callq  2a15 <adler32_combine_>
/home/rgesteve/projects/zlib-1.2.11/build/../adler32.c:186
    2bbf:	leaveq 
    2bc0:	retq   

0000000000002bc1 <compress2>:
compress2():
/home/rgesteve/projects/zlib-1.2.11/build/../compress.c:28
    2bc1:	push   %rbp
    2bc2:	mov    %rsp,%rbp
    2bc5:	sub    $0xc0,%rsp
    2bcc:	mov    %rdi,-0x98(%rbp)
    2bd3:	mov    %rsi,-0xa0(%rbp)
    2bda:	mov    %rdx,-0xa8(%rbp)
    2be1:	mov    %rcx,-0xb0(%rbp)
    2be8:	mov    %r8d,-0xb4(%rbp)
    2bef:	mov    %fs:0x28,%rax
    2bf8:	mov    %rax,-0x8(%rbp)
    2bfc:	xor    %eax,%eax
/home/rgesteve/projects/zlib-1.2.11/build/../compress.c:31
    2bfe:	movl   $0xffffffff,-0x90(%rbp)
/home/rgesteve/projects/zlib-1.2.11/build/../compress.c:34
    2c08:	mov    -0xa0(%rbp),%rax
    2c0f:	mov    (%rax),%rax
    2c12:	mov    %rax,-0x88(%rbp)
/home/rgesteve/projects/zlib-1.2.11/build/../compress.c:35
    2c19:	mov    -0xa0(%rbp),%rax
    2c20:	movq   $0x0,(%rax)
/home/rgesteve/projects/zlib-1.2.11/build/../compress.c:37
    2c27:	movq   $0x0,-0x40(%rbp)
/home/rgesteve/projects/zlib-1.2.11/build/../compress.c:38
    2c2f:	movq   $0x0,-0x38(%rbp)
/home/rgesteve/projects/zlib-1.2.11/build/../compress.c:39
    2c37:	movq   $0x0,-0x30(%rbp)
/home/rgesteve/projects/zlib-1.2.11/build/../compress.c:41
    2c3f:	mov    -0xb4(%rbp),%esi
    2c45:	lea    -0x80(%rbp),%rax
    2c49:	mov    $0x70,%ecx
    2c4e:	lea    0x1388b(%rip),%rdx        # 164e0 <_fini+0x10>
    2c55:	mov    %rax,%rdi
    2c58:	callq  2200 <deflateInit_@plt>
    2c5d:	mov    %eax,-0x8c(%rbp)
/home/rgesteve/projects/zlib-1.2.11/build/../compress.c:42
    2c63:	cmpl   $0x0,-0x8c(%rbp)
    2c6a:	je     2c77 <compress2+0xb6>
/home/rgesteve/projects/zlib-1.2.11/build/../compress.c:42 (discriminator 1)
    2c6c:	mov    -0x8c(%rbp),%eax
    2c72:	jmpq   2d6a <compress2+0x1a9>
/home/rgesteve/projects/zlib-1.2.11/build/../compress.c:44
    2c77:	mov    -0x98(%rbp),%rax
    2c7e:	mov    %rax,-0x68(%rbp)
/home/rgesteve/projects/zlib-1.2.11/build/../compress.c:45
    2c82:	movl   $0x0,-0x60(%rbp)
/home/rgesteve/projects/zlib-1.2.11/build/../compress.c:46
    2c89:	mov    -0xa8(%rbp),%rax
    2c90:	mov    %rax,-0x80(%rbp)
/home/rgesteve/projects/zlib-1.2.11/build/../compress.c:47
    2c94:	movl   $0x0,-0x78(%rbp)
/home/rgesteve/projects/zlib-1.2.11/build/../compress.c:50
    2c9b:	mov    -0x60(%rbp),%eax
    2c9e:	test   %eax,%eax
    2ca0:	jne    2ccf <compress2+0x10e>
/home/rgesteve/projects/zlib-1.2.11/build/../compress.c:51
    2ca2:	mov    -0x90(%rbp),%eax
    2ca8:	cmp    %rax,-0x88(%rbp)
    2caf:	ja     2cba <compress2+0xf9>
/home/rgesteve/projects/zlib-1.2.11/build/../compress.c:51 (discriminator 1)
    2cb1:	mov    -0x88(%rbp),%rax
    2cb8:	jmp    2cc0 <compress2+0xff>
/home/rgesteve/projects/zlib-1.2.11/build/../compress.c:51 (discriminator 2)
    2cba:	mov    -0x90(%rbp),%eax
/home/rgesteve/projects/zlib-1.2.11/build/../compress.c:51 (discriminator 4)
    2cc0:	mov    %eax,-0x60(%rbp)
/home/rgesteve/projects/zlib-1.2.11/build/../compress.c:52 (discriminator 4)
    2cc3:	mov    -0x60(%rbp),%eax
    2cc6:	mov    %eax,%eax
    2cc8:	sub    %rax,-0x88(%rbp)
/home/rgesteve/projects/zlib-1.2.11/build/../compress.c:54
    2ccf:	mov    -0x78(%rbp),%eax
    2cd2:	test   %eax,%eax
    2cd4:	jne    2d03 <compress2+0x142>
/home/rgesteve/projects/zlib-1.2.11/build/../compress.c:55
    2cd6:	mov    -0x90(%rbp),%eax
    2cdc:	cmp    %rax,-0xb0(%rbp)
    2ce3:	ja     2cee <compress2+0x12d>
/home/rgesteve/projects/zlib-1.2.11/build/../compress.c:55 (discriminator 1)
    2ce5:	mov    -0xb0(%rbp),%rax
    2cec:	jmp    2cf4 <compress2+0x133>
/home/rgesteve/projects/zlib-1.2.11/build/../compress.c:55 (discriminator 2)
    2cee:	mov    -0x90(%rbp),%eax
/home/rgesteve/projects/zlib-1.2.11/build/../compress.c:55 (discriminator 4)
    2cf4:	mov    %eax,-0x78(%rbp)
/home/rgesteve/projects/zlib-1.2.11/build/../compress.c:56 (discriminator 4)
    2cf7:	mov    -0x78(%rbp),%eax
    2cfa:	mov    %eax,%eax
    2cfc:	sub    %rax,-0xb0(%rbp)
/home/rgesteve/projects/zlib-1.2.11/build/../compress.c:58
    2d03:	cmpq   $0x0,-0xb0(%rbp)
    2d0b:	je     2d14 <compress2+0x153>
/home/rgesteve/projects/zlib-1.2.11/build/../compress.c:58 (discriminator 1)
    2d0d:	mov    $0x0,%edx
    2d12:	jmp    2d19 <compress2+0x158>
/home/rgesteve/projects/zlib-1.2.11/build/../compress.c:58 (discriminator 2)
    2d14:	mov    $0x4,%edx
/home/rgesteve/projects/zlib-1.2.11/build/../compress.c:58 (discriminator 4)
    2d19:	lea    -0x80(%rbp),%rax
    2d1d:	mov    %edx,%esi
    2d1f:	mov    %rax,%rdi
    2d22:	callq  2180 <deflate@plt>
    2d27:	mov    %eax,-0x8c(%rbp)
/home/rgesteve/projects/zlib-1.2.11/build/../compress.c:59 (discriminator 4)
    2d2d:	cmpl   $0x0,-0x8c(%rbp)
    2d34:	je     2c9b <compress2+0xda>
/home/rgesteve/projects/zlib-1.2.11/build/../compress.c:61
    2d3a:	mov    -0x58(%rbp),%rdx
    2d3e:	mov    -0xa0(%rbp),%rax
    2d45:	mov    %rdx,(%rax)
/home/rgesteve/projects/zlib-1.2.11/build/../compress.c:62
    2d48:	lea    -0x80(%rbp),%rax
    2d4c:	mov    %rax,%rdi
    2d4f:	callq  2270 <deflateEnd@plt>
/home/rgesteve/projects/zlib-1.2.11/build/../compress.c:63
    2d54:	cmpl   $0x1,-0x8c(%rbp)
    2d5b:	je     2d65 <compress2+0x1a4>
/home/rgesteve/projects/zlib-1.2.11/build/../compress.c:63 (discriminator 1)
    2d5d:	mov    -0x8c(%rbp),%eax
    2d63:	jmp    2d6a <compress2+0x1a9>
/home/rgesteve/projects/zlib-1.2.11/build/../compress.c:63 (discriminator 2)
    2d65:	mov    $0x0,%eax
/home/rgesteve/projects/zlib-1.2.11/build/../compress.c:64 (discriminator 1)
    2d6a:	mov    -0x8(%rbp),%rcx
    2d6e:	xor    %fs:0x28,%rcx
    2d77:	je     2d7e <compress2+0x1bd>
/home/rgesteve/projects/zlib-1.2.11/build/../compress.c:64
    2d79:	callq  2150 <__stack_chk_fail@plt>
    2d7e:	leaveq 
    2d7f:	retq   

0000000000002d80 <compress>:
compress():
/home/rgesteve/projects/zlib-1.2.11/build/../compress.c:73
    2d80:	push   %rbp
    2d81:	mov    %rsp,%rbp
    2d84:	sub    $0x20,%rsp
    2d88:	mov    %rdi,-0x8(%rbp)
    2d8c:	mov    %rsi,-0x10(%rbp)
    2d90:	mov    %rdx,-0x18(%rbp)
    2d94:	mov    %rcx,-0x20(%rbp)
/home/rgesteve/projects/zlib-1.2.11/build/../compress.c:74
    2d98:	mov    -0x20(%rbp),%rcx
    2d9c:	mov    -0x18(%rbp),%rdx
    2da0:	mov    -0x10(%rbp),%rsi
    2da4:	mov    -0x8(%rbp),%rax
    2da8:	mov    $0xffffffff,%r8d
    2dae:	mov    %rax,%rdi
    2db1:	callq  22b0 <compress2@plt>
/home/rgesteve/projects/zlib-1.2.11/build/../compress.c:75
    2db6:	leaveq 
    2db7:	retq   

0000000000002db8 <compressBound>:
compressBound():
/home/rgesteve/projects/zlib-1.2.11/build/../compress.c:83
    2db8:	push   %rbp
    2db9:	mov    %rsp,%rbp
    2dbc:	mov    %rdi,-0x8(%rbp)
/home/rgesteve/projects/zlib-1.2.11/build/../compress.c:84
    2dc0:	mov    -0x8(%rbp),%rax
    2dc4:	shr    $0xc,%rax
    2dc8:	mov    %rax,%rdx
    2dcb:	mov    -0x8(%rbp),%rax
    2dcf:	add    %rax,%rdx
    2dd2:	mov    -0x8(%rbp),%rax
    2dd6:	shr    $0xe,%rax
    2dda:	add    %rax,%rdx
/home/rgesteve/projects/zlib-1.2.11/build/../compress.c:85
    2ddd:	mov    -0x8(%rbp),%rax
    2de1:	shr    $0x19,%rax
/home/rgesteve/projects/zlib-1.2.11/build/../compress.c:84
    2de5:	add    %rdx,%rax
/home/rgesteve/projects/zlib-1.2.11/build/../compress.c:85
    2de8:	add    $0xd,%rax
/home/rgesteve/projects/zlib-1.2.11/build/../compress.c:86
    2dec:	pop    %rbp
    2ded:	retq   

0000000000002dee <get_crc_table>:
get_crc_table():
/home/rgesteve/projects/zlib-1.2.11/build/../crc32.c:189
    2dee:	push   %rbp
    2def:	mov    %rsp,%rbp
/home/rgesteve/projects/zlib-1.2.11/build/../crc32.c:194
    2df2:	lea    0x13707(%rip),%rax        # 16500 <crc_table>
/home/rgesteve/projects/zlib-1.2.11/build/../crc32.c:195
    2df9:	pop    %rbp
    2dfa:	retq   

0000000000002dfb <crc32_z>:
crc32_z():
/home/rgesteve/projects/zlib-1.2.11/build/../crc32.c:206
    2dfb:	push   %rbp
    2dfc:	mov    %rsp,%rbp
    2dff:	sub    $0x30,%rsp
    2e03:	mov    %rdi,-0x18(%rbp)
    2e07:	mov    %rsi,-0x20(%rbp)
    2e0b:	mov    %rdx,-0x28(%rbp)
    2e0f:	mov    %fs:0x28,%rax
    2e18:	mov    %rax,-0x8(%rbp)
    2e1c:	xor    %eax,%eax
/home/rgesteve/projects/zlib-1.2.11/build/../crc32.c:207
    2e1e:	cmpq   $0x0,-0x20(%rbp)
    2e23:	jne    2e2c <crc32_z+0x31>
/home/rgesteve/projects/zlib-1.2.11/build/../crc32.c:207 (discriminator 1)
    2e25:	mov    $0x0,%eax
    2e2a:	jmp    2e6e <crc32_z+0x73>
/home/rgesteve/projects/zlib-1.2.11/build/../crc32.c:218
    2e2c:	movl   $0x1,-0xc(%rbp)
/home/rgesteve/projects/zlib-1.2.11/build/../crc32.c:219
    2e33:	lea    -0xc(%rbp),%rax
    2e37:	movzbl (%rax),%eax
    2e3a:	test   %al,%al
    2e3c:	je     2e57 <crc32_z+0x5c>
/home/rgesteve/projects/zlib-1.2.11/build/../crc32.c:220
    2e3e:	mov    -0x28(%rbp),%rdx
    2e42:	mov    -0x20(%rbp),%rcx
    2e46:	mov    -0x18(%rbp),%rax
    2e4a:	mov    %rcx,%rsi
    2e4d:	mov    %rax,%rdi
    2e50:	callq  2eaf <crc32_little>
    2e55:	jmp    2e6e <crc32_z+0x73>
/home/rgesteve/projects/zlib-1.2.11/build/../crc32.c:222
    2e57:	mov    -0x28(%rbp),%rdx
    2e5b:	mov    -0x20(%rbp),%rcx
    2e5f:	mov    -0x18(%rbp),%rax
    2e63:	mov    %rcx,%rsi
    2e66:	mov    %rax,%rdi
    2e69:	callq  34a1 <crc32_big>
/home/rgesteve/projects/zlib-1.2.11/build/../crc32.c:234 (discriminator 1)
    2e6e:	mov    -0x8(%rbp),%rsi
    2e72:	xor    %fs:0x28,%rsi
    2e7b:	je     2e82 <crc32_z+0x87>
/home/rgesteve/projects/zlib-1.2.11/build/../crc32.c:234
    2e7d:	callq  2150 <__stack_chk_fail@plt>
    2e82:	leaveq 
    2e83:	retq   

0000000000002e84 <crc32>:
crc32():
/home/rgesteve/projects/zlib-1.2.11/build/../crc32.c:241
    2e84:	push   %rbp
    2e85:	mov    %rsp,%rbp
    2e88:	sub    $0x20,%rsp
    2e8c:	mov    %rdi,-0x8(%rbp)
    2e90:	mov    %rsi,-0x10(%rbp)
    2e94:	mov    %edx,-0x14(%rbp)
/home/rgesteve/projects/zlib-1.2.11/build/../crc32.c:242
    2e97:	mov    -0x14(%rbp),%edx
    2e9a:	mov    -0x10(%rbp),%rcx
    2e9e:	mov    -0x8(%rbp),%rax
    2ea2:	mov    %rcx,%rsi
    2ea5:	mov    %rax,%rdi
    2ea8:	callq  2080 <crc32_z@plt>
/home/rgesteve/projects/zlib-1.2.11/build/../crc32.c:243
    2ead:	leaveq 
    2eae:	retq   

0000000000002eaf <crc32_little>:
crc32_little():
/home/rgesteve/projects/zlib-1.2.11/build/../crc32.c:270
    2eaf:	push   %rbp
    2eb0:	mov    %rsp,%rbp
    2eb3:	push   %r12
    2eb5:	push   %rbx
    2eb6:	mov    %rdi,-0x18(%rbp)
    2eba:	mov    %rsi,-0x20(%rbp)
    2ebe:	mov    %rdx,-0x28(%rbp)
/home/rgesteve/projects/zlib-1.2.11/build/../crc32.c:274
    2ec2:	mov    -0x18(%rbp),%rax
    2ec6:	mov    %eax,%ebx
/home/rgesteve/projects/zlib-1.2.11/build/../crc32.c:275
    2ec8:	not    %ebx
/home/rgesteve/projects/zlib-1.2.11/build/../crc32.c:276
    2eca:	jmp    2f05 <crc32_little+0x56>
/home/rgesteve/projects/zlib-1.2.11/build/../crc32.c:277
    2ecc:	mov    -0x20(%rbp),%rax
    2ed0:	lea    0x1(%rax),%rdx
    2ed4:	mov    %rdx,-0x20(%rbp)
    2ed8:	movzbl (%rax),%eax
    2edb:	movzbl %al,%eax
    2ede:	xor    %ebx,%eax
    2ee0:	movzbl %al,%eax
    2ee3:	mov    %eax,%eax
    2ee5:	lea    0x0(,%rax,4),%rdx
    2eed:	lea    0x1360c(%rip),%rax        # 16500 <crc_table>
    2ef4:	mov    (%rdx,%rax,1),%eax
    2ef7:	shr    $0x8,%ebx
    2efa:	mov    %ebx,%edx
    2efc:	xor    %edx,%eax
    2efe:	mov    %eax,%ebx
/home/rgesteve/projects/zlib-1.2.11/build/../crc32.c:278
    2f00:	subq   $0x1,-0x28(%rbp)
/home/rgesteve/projects/zlib-1.2.11/build/../crc32.c:276
    2f05:	cmpq   $0x0,-0x28(%rbp)
    2f0a:	je     2f18 <crc32_little+0x69>
/home/rgesteve/projects/zlib-1.2.11/build/../crc32.c:276 (discriminator 1)
    2f0c:	mov    -0x20(%rbp),%rax
    2f10:	and    $0x3,%eax
    2f13:	test   %rax,%rax
    2f16:	jne    2ecc <crc32_little+0x1d>
/home/rgesteve/projects/zlib-1.2.11/build/../crc32.c:281
    2f18:	mov    -0x20(%rbp),%r12
/home/rgesteve/projects/zlib-1.2.11/build/../crc32.c:282
    2f1c:	jmpq   339e <crc32_little+0x4ef>
/home/rgesteve/projects/zlib-1.2.11/build/../crc32.c:283
    2f21:	mov    %r12,%rax
    2f24:	lea    0x4(%rax),%r12
    2f28:	mov    (%rax),%eax
    2f2a:	xor    %eax,%ebx
    2f2c:	movzbl %bl,%eax
    2f2f:	mov    %eax,%eax
    2f31:	add    $0x300,%rax
    2f37:	lea    0x0(,%rax,4),%rdx
    2f3f:	lea    0x135ba(%rip),%rax        # 16500 <crc_table>
    2f46:	mov    (%rdx,%rax,1),%edx
    2f49:	mov    %ebx,%eax
    2f4b:	shr    $0x8,%eax
    2f4e:	movzbl %al,%eax
    2f51:	mov    %eax,%eax
    2f53:	add    $0x200,%rax
    2f59:	lea    0x0(,%rax,4),%rcx
    2f61:	lea    0x13598(%rip),%rax        # 16500 <crc_table>
    2f68:	mov    (%rcx,%rax,1),%eax
    2f6b:	mov    %edx,%ecx
    2f6d:	xor    %eax,%ecx
    2f6f:	mov    %ebx,%eax
    2f71:	shr    $0x10,%eax
    2f74:	movzbl %al,%eax
    2f77:	mov    %eax,%eax
    2f79:	add    $0x100,%rax
    2f7f:	lea    0x0(,%rax,4),%rdx
    2f87:	lea    0x13572(%rip),%rax        # 16500 <crc_table>
    2f8e:	mov    (%rdx,%rax,1),%eax
    2f91:	xor    %eax,%ecx
    2f93:	mov    %ebx,%eax
    2f95:	shr    $0x18,%eax
    2f98:	mov    %eax,%eax
    2f9a:	lea    0x0(,%rax,4),%rdx
    2fa2:	lea    0x13557(%rip),%rax        # 16500 <crc_table>
    2fa9:	mov    (%rdx,%rax,1),%eax
    2fac:	xor    %eax,%ecx
    2fae:	mov    %ecx,%ebx
    2fb0:	mov    %r12,%rax
    2fb3:	lea    0x4(%rax),%r12
    2fb7:	mov    (%rax),%eax
    2fb9:	xor    %eax,%ebx
    2fbb:	movzbl %bl,%eax
    2fbe:	mov    %eax,%eax
    2fc0:	add    $0x300,%rax
    2fc6:	lea    0x0(,%rax,4),%rdx
    2fce:	lea    0x1352b(%rip),%rax        # 16500 <crc_table>
    2fd5:	mov    (%rdx,%rax,1),%edx
    2fd8:	mov    %ebx,%eax
    2fda:	shr    $0x8,%eax
    2fdd:	movzbl %al,%eax
    2fe0:	mov    %eax,%eax
    2fe2:	add    $0x200,%rax
    2fe8:	lea    0x0(,%rax,4),%rcx
    2ff0:	lea    0x13509(%rip),%rax        # 16500 <crc_table>
    2ff7:	mov    (%rcx,%rax,1),%eax
    2ffa:	mov    %edx,%ecx
    2ffc:	xor    %eax,%ecx
    2ffe:	mov    %ebx,%eax
    3000:	shr    $0x10,%eax
    3003:	movzbl %al,%eax
    3006:	mov    %eax,%eax
    3008:	add    $0x100,%rax
    300e:	lea    0x0(,%rax,4),%rdx
    3016:	lea    0x134e3(%rip),%rax        # 16500 <crc_table>
    301d:	mov    (%rdx,%rax,1),%eax
    3020:	xor    %eax,%ecx
    3022:	mov    %ebx,%eax
    3024:	shr    $0x18,%eax
    3027:	mov    %eax,%eax
    3029:	lea    0x0(,%rax,4),%rdx
    3031:	lea    0x134c8(%rip),%rax        # 16500 <crc_table>
    3038:	mov    (%rdx,%rax,1),%eax
    303b:	xor    %eax,%ecx
    303d:	mov    %ecx,%ebx
    303f:	mov    %r12,%rax
    3042:	lea    0x4(%rax),%r12
    3046:	mov    (%rax),%eax
    3048:	xor    %eax,%ebx
    304a:	movzbl %bl,%eax
    304d:	mov    %eax,%eax
    304f:	add    $0x300,%rax
    3055:	lea    0x0(,%rax,4),%rdx
    305d:	lea    0x1349c(%rip),%rax        # 16500 <crc_table>
    3064:	mov    (%rdx,%rax,1),%edx
    3067:	mov    %ebx,%eax
    3069:	shr    $0x8,%eax
    306c:	movzbl %al,%eax
    306f:	mov    %eax,%eax
    3071:	add    $0x200,%rax
    3077:	lea    0x0(,%rax,4),%rcx
    307f:	lea    0x1347a(%rip),%rax        # 16500 <crc_table>
    3086:	mov    (%rcx,%rax,1),%eax
    3089:	mov    %edx,%ecx
    308b:	xor    %eax,%ecx
    308d:	mov    %ebx,%eax
    308f:	shr    $0x10,%eax
    3092:	movzbl %al,%eax
    3095:	mov    %eax,%eax
    3097:	add    $0x100,%rax
    309d:	lea    0x0(,%rax,4),%rdx
    30a5:	lea    0x13454(%rip),%rax        # 16500 <crc_table>
    30ac:	mov    (%rdx,%rax,1),%eax
    30af:	xor    %eax,%ecx
    30b1:	mov    %ebx,%eax
    30b3:	shr    $0x18,%eax
    30b6:	mov    %eax,%eax
    30b8:	lea    0x0(,%rax,4),%rdx
    30c0:	lea    0x13439(%rip),%rax        # 16500 <crc_table>
    30c7:	mov    (%rdx,%rax,1),%eax
    30ca:	mov    %ecx,%ebx
    30cc:	xor    %eax,%ebx
    30ce:	mov    %r12,%rax
    30d1:	lea    0x4(%rax),%r12
    30d5:	mov    (%rax),%eax
    30d7:	xor    %eax,%ebx
    30d9:	movzbl %bl,%eax
    30dc:	mov    %eax,%eax
    30de:	add    $0x300,%rax
    30e4:	lea    0x0(,%rax,4),%rdx
    30ec:	lea    0x1340d(%rip),%rax        # 16500 <crc_table>
    30f3:	mov    (%rdx,%rax,1),%edx
    30f6:	mov    %ebx,%eax
    30f8:	shr    $0x8,%eax
    30fb:	movzbl %al,%eax
    30fe:	mov    %eax,%eax
    3100:	add    $0x200,%rax
    3106:	lea    0x0(,%rax,4),%rcx
    310e:	lea    0x133eb(%rip),%rax        # 16500 <crc_table>
    3115:	mov    (%rcx,%rax,1),%eax
    3118:	mov    %edx,%ecx
    311a:	xor    %eax,%ecx
    311c:	mov    %ebx,%eax
    311e:	shr    $0x10,%eax
    3121:	movzbl %al,%eax
    3124:	mov    %eax,%eax
    3126:	add    $0x100,%rax
    312c:	lea    0x0(,%rax,4),%rdx
    3134:	lea    0x133c5(%rip),%rax        # 16500 <crc_table>
    313b:	mov    (%rdx,%rax,1),%eax
    313e:	xor    %eax,%ecx
    3140:	mov    %ebx,%eax
    3142:	shr    $0x18,%eax
    3145:	mov    %eax,%eax
    3147:	lea    0x0(,%rax,4),%rdx
    314f:	lea    0x133aa(%rip),%rax        # 16500 <crc_table>
    3156:	mov    (%rdx,%rax,1),%eax
    3159:	mov    %ecx,%ebx
    315b:	xor    %eax,%ebx
    315d:	mov    %r12,%rax
    3160:	lea    0x4(%rax),%r12
    3164:	mov    (%rax),%eax
    3166:	xor    %eax,%ebx
    3168:	movzbl %bl,%eax
    316b:	mov    %eax,%eax
    316d:	add    $0x300,%rax
    3173:	lea    0x0(,%rax,4),%rdx
    317b:	lea    0x1337e(%rip),%rax        # 16500 <crc_table>
    3182:	mov    (%rdx,%rax,1),%edx
    3185:	mov    %ebx,%eax
    3187:	shr    $0x8,%eax
    318a:	movzbl %al,%eax
    318d:	mov    %eax,%eax
    318f:	add    $0x200,%rax
    3195:	lea    0x0(,%rax,4),%rcx
    319d:	lea    0x1335c(%rip),%rax        # 16500 <crc_table>
    31a4:	mov    (%rcx,%rax,1),%eax
    31a7:	mov    %edx,%ecx
    31a9:	xor    %eax,%ecx
    31ab:	mov    %ebx,%eax
    31ad:	shr    $0x10,%eax
    31b0:	movzbl %al,%eax
    31b3:	mov    %eax,%eax
    31b5:	add    $0x100,%rax
    31bb:	lea    0x0(,%rax,4),%rdx
    31c3:	lea    0x13336(%rip),%rax        # 16500 <crc_table>
    31ca:	mov    (%rdx,%rax,1),%eax
    31cd:	xor    %eax,%ecx
    31cf:	mov    %ebx,%eax
    31d1:	shr    $0x18,%eax
    31d4:	mov    %eax,%eax
    31d6:	lea    0x0(,%rax,4),%rdx
    31de:	lea    0x1331b(%rip),%rax        # 16500 <crc_table>
    31e5:	mov    (%rdx,%rax,1),%eax
    31e8:	mov    %ecx,%ebx
    31ea:	xor    %eax,%ebx
    31ec:	mov    %r12,%rax
    31ef:	lea    0x4(%rax),%r12
    31f3:	mov    (%rax),%eax
    31f5:	xor    %eax,%ebx
    31f7:	movzbl %bl,%eax
    31fa:	mov    %eax,%eax
    31fc:	add    $0x300,%rax
    3202:	lea    0x0(,%rax,4),%rdx
    320a:	lea    0x132ef(%rip),%rax        # 16500 <crc_table>
    3211:	mov    (%rdx,%rax,1),%edx
    3214:	mov    %ebx,%eax
    3216:	shr    $0x8,%eax
    3219:	movzbl %al,%eax
    321c:	mov    %eax,%eax
    321e:	add    $0x200,%rax
    3224:	lea    0x0(,%rax,4),%rcx
    322c:	lea    0x132cd(%rip),%rax        # 16500 <crc_table>
    3233:	mov    (%rcx,%rax,1),%eax
    3236:	mov    %edx,%ecx
    3238:	xor    %eax,%ecx
    323a:	mov    %ebx,%eax
    323c:	shr    $0x10,%eax
    323f:	movzbl %al,%eax
    3242:	mov    %eax,%eax
    3244:	add    $0x100,%rax
    324a:	lea    0x0(,%rax,4),%rdx
    3252:	lea    0x132a7(%rip),%rax        # 16500 <crc_table>
    3259:	mov    (%rdx,%rax,1),%eax
    325c:	xor    %eax,%ecx
    325e:	mov    %ebx,%eax
    3260:	shr    $0x18,%eax
    3263:	mov    %eax,%eax
    3265:	lea    0x0(,%rax,4),%rdx
    326d:	lea    0x1328c(%rip),%rax        # 16500 <crc_table>
    3274:	mov    (%rdx,%rax,1),%eax
    3277:	mov    %ecx,%ebx
    3279:	xor    %eax,%ebx
    327b:	mov    %r12,%rax
    327e:	lea    0x4(%rax),%r12
    3282:	mov    (%rax),%eax
    3284:	xor    %eax,%ebx
    3286:	movzbl %bl,%eax
    3289:	mov    %eax,%eax
    328b:	add    $0x300,%rax
    3291:	lea    0x0(,%rax,4),%rdx
    3299:	lea    0x13260(%rip),%rax        # 16500 <crc_table>
    32a0:	mov    (%rdx,%rax,1),%edx
    32a3:	mov    %ebx,%eax
    32a5:	shr    $0x8,%eax
    32a8:	movzbl %al,%eax
    32ab:	mov    %eax,%eax
    32ad:	add    $0x200,%rax
    32b3:	lea    0x0(,%rax,4),%rcx
    32bb:	lea    0x1323e(%rip),%rax        # 16500 <crc_table>
    32c2:	mov    (%rcx,%rax,1),%eax
    32c5:	mov    %edx,%ecx
    32c7:	xor    %eax,%ecx
    32c9:	mov    %ebx,%eax
    32cb:	shr    $0x10,%eax
    32ce:	movzbl %al,%eax
    32d1:	mov    %eax,%eax
    32d3:	add    $0x100,%rax
    32d9:	lea    0x0(,%rax,4),%rdx
    32e1:	lea    0x13218(%rip),%rax        # 16500 <crc_table>
    32e8:	mov    (%rdx,%rax,1),%eax
    32eb:	xor    %eax,%ecx
    32ed:	mov    %ebx,%eax
    32ef:	shr    $0x18,%eax
    32f2:	mov    %eax,%eax
    32f4:	lea    0x0(,%rax,4),%rdx
    32fc:	lea    0x131fd(%rip),%rax        # 16500 <crc_table>
    3303:	mov    (%rdx,%rax,1),%eax
    3306:	mov    %ecx,%ebx
    3308:	xor    %eax,%ebx
    330a:	mov    %r12,%rax
    330d:	lea    0x4(%rax),%r12
    3311:	mov    (%rax),%eax
    3313:	xor    %eax,%ebx
    3315:	movzbl %bl,%eax
    3318:	mov    %eax,%eax
    331a:	add    $0x300,%rax
    3320:	lea    0x0(,%rax,4),%rdx
    3328:	lea    0x131d1(%rip),%rax        # 16500 <crc_table>
    332f:	mov    (%rdx,%rax,1),%edx
    3332:	mov    %ebx,%eax
    3334:	shr    $0x8,%eax
    3337:	movzbl %al,%eax
    333a:	mov    %eax,%eax
    333c:	add    $0x200,%rax
    3342:	lea    0x0(,%rax,4),%rcx
    334a:	lea    0x131af(%rip),%rax        # 16500 <crc_table>
    3351:	mov    (%rcx,%rax,1),%eax
    3354:	mov    %edx,%ecx
    3356:	xor    %eax,%ecx
    3358:	mov    %ebx,%eax
    335a:	shr    $0x10,%eax
    335d:	movzbl %al,%eax
    3360:	mov    %eax,%eax
    3362:	add    $0x100,%rax
    3368:	lea    0x0(,%rax,4),%rdx
    3370:	lea    0x13189(%rip),%rax        # 16500 <crc_table>
    3377:	mov    (%rdx,%rax,1),%eax
    337a:	xor    %eax,%ecx
    337c:	mov    %ebx,%eax
    337e:	shr    $0x18,%eax
    3381:	mov    %eax,%eax
    3383:	lea    0x0(,%rax,4),%rdx
    338b:	lea    0x1316e(%rip),%rax        # 16500 <crc_table>
    3392:	mov    (%rdx,%rax,1),%eax
    3395:	mov    %ecx,%ebx
    3397:	xor    %eax,%ebx
/home/rgesteve/projects/zlib-1.2.11/build/../crc32.c:284
    3399:	subq   $0x20,-0x28(%rbp)
/home/rgesteve/projects/zlib-1.2.11/build/../crc32.c:282
    339e:	cmpq   $0x1f,-0x28(%rbp)
    33a3:	ja     2f21 <crc32_little+0x72>
/home/rgesteve/projects/zlib-1.2.11/build/../crc32.c:286
    33a9:	jmpq   3442 <crc32_little+0x593>
/home/rgesteve/projects/zlib-1.2.11/build/../crc32.c:287
    33ae:	mov    %r12,%rax
    33b1:	lea    0x4(%rax),%r12
    33b5:	mov    (%rax),%eax
    33b7:	xor    %eax,%ebx
    33b9:	movzbl %bl,%eax
    33bc:	mov    %eax,%eax
    33be:	add    $0x300,%rax
    33c4:	lea    0x0(,%rax,4),%rdx
    33cc:	lea    0x1312d(%rip),%rax        # 16500 <crc_table>
    33d3:	mov    (%rdx,%rax,1),%edx
    33d6:	mov    %ebx,%eax
    33d8:	shr    $0x8,%eax
    33db:	movzbl %al,%eax
    33de:	mov    %eax,%eax
    33e0:	add    $0x200,%rax
    33e6:	lea    0x0(,%rax,4),%rcx
    33ee:	lea    0x1310b(%rip),%rax        # 16500 <crc_table>
    33f5:	mov    (%rcx,%rax,1),%eax
    33f8:	mov    %edx,%ecx
    33fa:	xor    %eax,%ecx
    33fc:	mov    %ebx,%eax
    33fe:	shr    $0x10,%eax
    3401:	movzbl %al,%eax
    3404:	mov    %eax,%eax
    3406:	add    $0x100,%rax
    340c:	lea    0x0(,%rax,4),%rdx
    3414:	lea    0x130e5(%rip),%rax        # 16500 <crc_table>
    341b:	mov    (%rdx,%rax,1),%eax
    341e:	xor    %eax,%ecx
    3420:	mov    %ebx,%eax
    3422:	shr    $0x18,%eax
    3425:	mov    %eax,%eax
    3427:	lea    0x0(,%rax,4),%rdx
    342f:	lea    0x130ca(%rip),%rax        # 16500 <crc_table>
    3436:	mov    (%rdx,%rax,1),%eax
    3439:	mov    %ecx,%ebx
    343b:	xor    %eax,%ebx
/home/rgesteve/projects/zlib-1.2.11/build/../crc32.c:288
    343d:	subq   $0x4,-0x28(%rbp)
/home/rgesteve/projects/zlib-1.2.11/build/../crc32.c:286
    3442:	cmpq   $0x3,-0x28(%rbp)
    3447:	ja     33ae <crc32_little+0x4ff>
/home/rgesteve/projects/zlib-1.2.11/build/../crc32.c:290
    344d:	mov    %r12,-0x20(%rbp)
/home/rgesteve/projects/zlib-1.2.11/build/../crc32.c:292
    3451:	cmpq   $0x0,-0x28(%rbp)
    3456:	je     3498 <crc32_little+0x5e9>
/home/rgesteve/projects/zlib-1.2.11/build/../crc32.c:293 (discriminator 1)
    3458:	mov    -0x20(%rbp),%rax
    345c:	lea    0x1(%rax),%rdx
    3460:	mov    %rdx,-0x20(%rbp)
    3464:	movzbl (%rax),%eax
    3467:	movzbl %al,%eax
    346a:	xor    %ebx,%eax
    346c:	movzbl %al,%eax
    346f:	mov    %eax,%eax
    3471:	lea    0x0(,%rax,4),%rdx
    3479:	lea    0x13080(%rip),%rax        # 16500 <crc_table>
    3480:	mov    (%rdx,%rax,1),%eax
    3483:	mov    %ebx,%edx
    3485:	shr    $0x8,%edx
    3488:	xor    %edx,%eax
    348a:	mov    %eax,%ebx
/home/rgesteve/projects/zlib-1.2.11/build/../crc32.c:294 (discriminator 1)
    348c:	subq   $0x1,-0x28(%rbp)
    3491:	cmpq   $0x0,-0x28(%rbp)
    3496:	jne    3458 <crc32_little+0x5a9>
/home/rgesteve/projects/zlib-1.2.11/build/../crc32.c:295
    3498:	not    %ebx
/home/rgesteve/projects/zlib-1.2.11/build/../crc32.c:296
    349a:	mov    %ebx,%eax
/home/rgesteve/projects/zlib-1.2.11/build/../crc32.c:297
    349c:	pop    %rbx
    349d:	pop    %r12
    349f:	pop    %rbp
    34a0:	retq   

00000000000034a1 <crc32_big>:
crc32_big():
/home/rgesteve/projects/zlib-1.2.11/build/../crc32.c:310
    34a1:	push   %rbp
    34a2:	mov    %rsp,%rbp
    34a5:	push   %r12
    34a7:	push   %rbx
    34a8:	mov    %rdi,-0x18(%rbp)
    34ac:	mov    %rsi,-0x20(%rbp)
    34b0:	mov    %rdx,-0x28(%rbp)
/home/rgesteve/projects/zlib-1.2.11/build/../crc32.c:314
    34b4:	mov    -0x18(%rbp),%rax
    34b8:	shr    $0x18,%eax
    34bb:	mov    %eax,%edx
    34bd:	mov    -0x18(%rbp),%rax
    34c1:	shr    $0x8,%eax
    34c4:	and    $0xff00,%eax
    34c9:	add    %eax,%edx
    34cb:	mov    -0x18(%rbp),%rax
    34cf:	shl    $0x8,%eax
    34d2:	and    $0xff0000,%eax
    34d7:	add    %eax,%edx
    34d9:	mov    -0x18(%rbp),%rax
    34dd:	shl    $0x18,%eax
    34e0:	lea    (%rdx,%rax,1),%ebx
/home/rgesteve/projects/zlib-1.2.11/build/../crc32.c:315
    34e3:	not    %ebx
/home/rgesteve/projects/zlib-1.2.11/build/../crc32.c:316
    34e5:	jmp    3528 <crc32_big+0x87>
/home/rgesteve/projects/zlib-1.2.11/build/../crc32.c:317
    34e7:	mov    %ebx,%ecx
    34e9:	shr    $0x18,%ecx
    34ec:	mov    -0x20(%rbp),%rax
    34f0:	lea    0x1(%rax),%rdx
    34f4:	mov    %rdx,-0x20(%rbp)
    34f8:	movzbl (%rax),%eax
    34fb:	movzbl %al,%eax
    34fe:	xor    %ecx,%eax
    3500:	mov    %eax,%eax
    3502:	add    $0x400,%rax
    3508:	lea    0x0(,%rax,4),%rdx
    3510:	lea    0x12fe9(%rip),%rax        # 16500 <crc_table>
    3517:	mov    (%rdx,%rax,1),%eax
    351a:	shl    $0x8,%ebx
    351d:	mov    %ebx,%edx
    351f:	xor    %edx,%eax
    3521:	mov    %eax,%ebx
/home/rgesteve/projects/zlib-1.2.11/build/../crc32.c:318
    3523:	subq   $0x1,-0x28(%rbp)
/home/rgesteve/projects/zlib-1.2.11/build/../crc32.c:316
    3528:	cmpq   $0x0,-0x28(%rbp)
    352d:	je     353b <crc32_big+0x9a>
/home/rgesteve/projects/zlib-1.2.11/build/../crc32.c:316 (discriminator 1)
    352f:	mov    -0x20(%rbp),%rax
    3533:	and    $0x3,%eax
    3536:	test   %rax,%rax
    3539:	jne    34e7 <crc32_big+0x46>
/home/rgesteve/projects/zlib-1.2.11/build/../crc32.c:321
    353b:	mov    -0x20(%rbp),%r12
/home/rgesteve/projects/zlib-1.2.11/build/../crc32.c:322
    353f:	jmpq   39f1 <crc32_big+0x550>
/home/rgesteve/projects/zlib-1.2.11/build/../crc32.c:323
    3544:	mov    %r12,%rax
    3547:	lea    0x4(%rax),%r12
    354b:	mov    (%rax),%eax
    354d:	xor    %eax,%ebx
    354f:	movzbl %bl,%eax
    3552:	mov    %eax,%eax
    3554:	add    $0x400,%rax
    355a:	lea    0x0(,%rax,4),%rdx
    3562:	lea    0x12f97(%rip),%rax        # 16500 <crc_table>
    3569:	mov    (%rdx,%rax,1),%edx
    356c:	mov    %ebx,%eax
    356e:	shr    $0x8,%eax
    3571:	movzbl %al,%eax
    3574:	mov    %eax,%eax
    3576:	add    $0x500,%rax
    357c:	lea    0x0(,%rax,4),%rcx
    3584:	lea    0x12f75(%rip),%rax        # 16500 <crc_table>
    358b:	mov    (%rcx,%rax,1),%eax
    358e:	mov    %edx,%ecx
    3590:	xor    %eax,%ecx
    3592:	mov    %ebx,%eax
    3594:	shr    $0x10,%eax
    3597:	movzbl %al,%eax
    359a:	mov    %eax,%eax
    359c:	add    $0x600,%rax
    35a2:	lea    0x0(,%rax,4),%rdx
    35aa:	lea    0x12f4f(%rip),%rax        # 16500 <crc_table>
    35b1:	mov    (%rdx,%rax,1),%eax
    35b4:	xor    %eax,%ecx
    35b6:	mov    %ebx,%eax
    35b8:	shr    $0x18,%eax
    35bb:	mov    %eax,%eax
    35bd:	add    $0x700,%rax
    35c3:	lea    0x0(,%rax,4),%rdx
    35cb:	lea    0x12f2e(%rip),%rax        # 16500 <crc_table>
    35d2:	mov    (%rdx,%rax,1),%eax
    35d5:	xor    %eax,%ecx
    35d7:	mov    %ecx,%ebx
    35d9:	mov    %r12,%rax
    35dc:	lea    0x4(%rax),%r12
    35e0:	mov    (%rax),%eax
    35e2:	xor    %eax,%ebx
    35e4:	movzbl %bl,%eax
    35e7:	mov    %eax,%eax
    35e9:	add    $0x400,%rax
    35ef:	lea    0x0(,%rax,4),%rdx
    35f7:	lea    0x12f02(%rip),%rax        # 16500 <crc_table>
    35fe:	mov    (%rdx,%rax,1),%edx
    3601:	mov    %ebx,%eax
    3603:	shr    $0x8,%eax
    3606:	movzbl %al,%eax
    3609:	mov    %eax,%eax
    360b:	add    $0x500,%rax
    3611:	lea    0x0(,%rax,4),%rcx
    3619:	lea    0x12ee0(%rip),%rax        # 16500 <crc_table>
    3620:	mov    (%rcx,%rax,1),%eax
    3623:	mov    %edx,%ecx
    3625:	xor    %eax,%ecx
    3627:	mov    %ebx,%eax
    3629:	shr    $0x10,%eax
    362c:	movzbl %al,%eax
    362f:	mov    %eax,%eax
    3631:	add    $0x600,%rax
    3637:	lea    0x0(,%rax,4),%rdx
    363f:	lea    0x12eba(%rip),%rax        # 16500 <crc_table>
    3646:	mov    (%rdx,%rax,1),%eax
    3649:	xor    %eax,%ecx
    364b:	mov    %ebx,%eax
    364d:	shr    $0x18,%eax
    3650:	mov    %eax,%eax
    3652:	add    $0x700,%rax
    3658:	lea    0x0(,%rax,4),%rdx
    3660:	lea    0x12e99(%rip),%rax        # 16500 <crc_table>
    3667:	mov    (%rdx,%rax,1),%eax
    366a:	xor    %eax,%ecx
    366c:	mov    %ecx,%ebx
    366e:	mov    %r12,%rax
    3671:	lea    0x4(%rax),%r12
    3675:	mov    (%rax),%eax
    3677:	xor    %eax,%ebx
    3679:	movzbl %bl,%eax
    367c:	mov    %eax,%eax
    367e:	add    $0x400,%rax
    3684:	lea    0x0(,%rax,4),%rdx
    368c:	lea    0x12e6d(%rip),%rax        # 16500 <crc_table>
    3693:	mov    (%rdx,%rax,1),%edx
    3696:	mov    %ebx,%eax
    3698:	shr    $0x8,%eax
    369b:	movzbl %al,%eax
    369e:	mov    %eax,%eax
    36a0:	add    $0x500,%rax
    36a6:	lea    0x0(,%rax,4),%rcx
    36ae:	lea    0x12e4b(%rip),%rax        # 16500 <crc_table>
    36b5:	mov    (%rcx,%rax,1),%eax
    36b8:	mov    %edx,%ecx
    36ba:	xor    %eax,%ecx
    36bc:	mov    %ebx,%eax
    36be:	shr    $0x10,%eax
    36c1:	movzbl %al,%eax
    36c4:	mov    %eax,%eax
    36c6:	add    $0x600,%rax
    36cc:	lea    0x0(,%rax,4),%rdx
    36d4:	lea    0x12e25(%rip),%rax        # 16500 <crc_table>
    36db:	mov    (%rdx,%rax,1),%eax
    36de:	xor    %eax,%ecx
    36e0:	mov    %ebx,%eax
    36e2:	shr    $0x18,%eax
    36e5:	mov    %eax,%eax
    36e7:	add    $0x700,%rax
    36ed:	lea    0x0(,%rax,4),%rdx
    36f5:	lea    0x12e04(%rip),%rax        # 16500 <crc_table>
    36fc:	mov    (%rdx,%rax,1),%eax
    36ff:	mov    %ecx,%ebx
    3701:	xor    %eax,%ebx
    3703:	mov    %r12,%rax
    3706:	lea    0x4(%rax),%r12
    370a:	mov    (%rax),%eax
    370c:	xor    %eax,%ebx
    370e:	movzbl %bl,%eax
    3711:	mov    %eax,%eax
    3713:	add    $0x400,%rax
    3719:	lea    0x0(,%rax,4),%rdx
    3721:	lea    0x12dd8(%rip),%rax        # 16500 <crc_table>
    3728:	mov    (%rdx,%rax,1),%edx
    372b:	mov    %ebx,%eax
    372d:	shr    $0x8,%eax
    3730:	movzbl %al,%eax
    3733:	mov    %eax,%eax
    3735:	add    $0x500,%rax
    373b:	lea    0x0(,%rax,4),%rcx
    3743:	lea    0x12db6(%rip),%rax        # 16500 <crc_table>
    374a:	mov    (%rcx,%rax,1),%eax
    374d:	mov    %edx,%ecx
    374f:	xor    %eax,%ecx
    3751:	mov    %ebx,%eax
    3753:	shr    $0x10,%eax
    3756:	movzbl %al,%eax
    3759:	mov    %eax,%eax
    375b:	add    $0x600,%rax
    3761:	lea    0x0(,%rax,4),%rdx
    3769:	lea    0x12d90(%rip),%rax        # 16500 <crc_table>
    3770:	mov    (%rdx,%rax,1),%eax
    3773:	xor    %eax,%ecx
    3775:	mov    %ebx,%eax
    3777:	shr    $0x18,%eax
    377a:	mov    %eax,%eax
    377c:	add    $0x700,%rax
    3782:	lea    0x0(,%rax,4),%rdx
    378a:	lea    0x12d6f(%rip),%rax        # 16500 <crc_table>
    3791:	mov    (%rdx,%rax,1),%eax
    3794:	mov    %ecx,%ebx
    3796:	xor    %eax,%ebx
    3798:	mov    %r12,%rax
    379b:	lea    0x4(%rax),%r12
    379f:	mov    (%rax),%eax
    37a1:	xor    %eax,%ebx
    37a3:	movzbl %bl,%eax
    37a6:	mov    %eax,%eax
    37a8:	add    $0x400,%rax
    37ae:	lea    0x0(,%rax,4),%rdx
    37b6:	lea    0x12d43(%rip),%rax        # 16500 <crc_table>
    37bd:	mov    (%rdx,%rax,1),%edx
    37c0:	mov    %ebx,%eax
    37c2:	shr    $0x8,%eax
    37c5:	movzbl %al,%eax
    37c8:	mov    %eax,%eax
    37ca:	add    $0x500,%rax
    37d0:	lea    0x0(,%rax,4),%rcx
    37d8:	lea    0x12d21(%rip),%rax        # 16500 <crc_table>
    37df:	mov    (%rcx,%rax,1),%eax
    37e2:	mov    %edx,%ecx
    37e4:	xor    %eax,%ecx
    37e6:	mov    %ebx,%eax
    37e8:	shr    $0x10,%eax
    37eb:	movzbl %al,%eax
    37ee:	mov    %eax,%eax
    37f0:	add    $0x600,%rax
    37f6:	lea    0x0(,%rax,4),%rdx
    37fe:	lea    0x12cfb(%rip),%rax        # 16500 <crc_table>
    3805:	mov    (%rdx,%rax,1),%eax
    3808:	xor    %eax,%ecx
    380a:	mov    %ebx,%eax
    380c:	shr    $0x18,%eax
    380f:	mov    %eax,%eax
    3811:	add    $0x700,%rax
    3817:	lea    0x0(,%rax,4),%rdx
    381f:	lea    0x12cda(%rip),%rax        # 16500 <crc_table>
    3826:	mov    (%rdx,%rax,1),%eax
    3829:	mov    %ecx,%ebx
    382b:	xor    %eax,%ebx
    382d:	mov    %r12,%rax
    3830:	lea    0x4(%rax),%r12
    3834:	mov    (%rax),%eax
    3836:	xor    %eax,%ebx
    3838:	movzbl %bl,%eax
    383b:	mov    %eax,%eax
    383d:	add    $0x400,%rax
    3843:	lea    0x0(,%rax,4),%rdx
    384b:	lea    0x12cae(%rip),%rax        # 16500 <crc_table>
    3852:	mov    (%rdx,%rax,1),%edx
    3855:	mov    %ebx,%eax
    3857:	shr    $0x8,%eax
    385a:	movzbl %al,%eax
    385d:	mov    %eax,%eax
    385f:	add    $0x500,%rax
    3865:	lea    0x0(,%rax,4),%rcx
    386d:	lea    0x12c8c(%rip),%rax        # 16500 <crc_table>
    3874:	mov    (%rcx,%rax,1),%eax
    3877:	mov    %edx,%ecx
    3879:	xor    %eax,%ecx
    387b:	mov    %ebx,%eax
    387d:	shr    $0x10,%eax
    3880:	movzbl %al,%eax
    3883:	mov    %eax,%eax
    3885:	add    $0x600,%rax
    388b:	lea    0x0(,%rax,4),%rdx
    3893:	lea    0x12c66(%rip),%rax        # 16500 <crc_table>
    389a:	mov    (%rdx,%rax,1),%eax
    389d:	xor    %eax,%ecx
    389f:	mov    %ebx,%eax
    38a1:	shr    $0x18,%eax
    38a4:	mov    %eax,%eax
    38a6:	add    $0x700,%rax
    38ac:	lea    0x0(,%rax,4),%rdx
    38b4:	lea    0x12c45(%rip),%rax        # 16500 <crc_table>
    38bb:	mov    (%rdx,%rax,1),%eax
    38be:	mov    %ecx,%ebx
    38c0:	xor    %eax,%ebx
    38c2:	mov    %r12,%rax
    38c5:	lea    0x4(%rax),%r12
    38c9:	mov    (%rax),%eax
    38cb:	xor    %eax,%ebx
    38cd:	movzbl %bl,%eax
    38d0:	mov    %eax,%eax
    38d2:	add    $0x400,%rax
    38d8:	lea    0x0(,%rax,4),%rdx
    38e0:	lea    0x12c19(%rip),%rax        # 16500 <crc_table>
    38e7:	mov    (%rdx,%rax,1),%edx
    38ea:	mov    %ebx,%eax
    38ec:	shr    $0x8,%eax
    38ef:	movzbl %al,%eax
    38f2:	mov    %eax,%eax
    38f4:	add    $0x500,%rax
    38fa:	lea    0x0(,%rax,4),%rcx
    3902:	lea    0x12bf7(%rip),%rax        # 16500 <crc_table>
    3909:	mov    (%rcx,%rax,1),%eax
    390c:	mov    %edx,%ecx
    390e:	xor    %eax,%ecx
    3910:	mov    %ebx,%eax
    3912:	shr    $0x10,%eax
    3915:	movzbl %al,%eax
    3918:	mov    %eax,%eax
    391a:	add    $0x600,%rax
    3920:	lea    0x0(,%rax,4),%rdx
    3928:	lea    0x12bd1(%rip),%rax        # 16500 <crc_table>
    392f:	mov    (%rdx,%rax,1),%eax
    3932:	xor    %eax,%ecx
    3934:	mov    %ebx,%eax
    3936:	shr    $0x18,%eax
    3939:	mov    %eax,%eax
    393b:	add    $0x700,%rax
    3941:	lea    0x0(,%rax,4),%rdx
    3949:	lea    0x12bb0(%rip),%rax        # 16500 <crc_table>
    3950:	mov    (%rdx,%rax,1),%eax
    3953:	mov    %ecx,%ebx
    3955:	xor    %eax,%ebx
    3957:	mov    %r12,%rax
    395a:	lea    0x4(%rax),%r12
    395e:	mov    (%rax),%eax
    3960:	xor    %eax,%ebx
    3962:	movzbl %bl,%eax
    3965:	mov    %eax,%eax
    3967:	add    $0x400,%rax
    396d:	lea    0x0(,%rax,4),%rdx
    3975:	lea    0x12b84(%rip),%rax        # 16500 <crc_table>
    397c:	mov    (%rdx,%rax,1),%edx
    397f:	mov    %ebx,%eax
    3981:	shr    $0x8,%eax
    3984:	movzbl %al,%eax
    3987:	mov    %eax,%eax
    3989:	add    $0x500,%rax
    398f:	lea    0x0(,%rax,4),%rcx
    3997:	lea    0x12b62(%rip),%rax        # 16500 <crc_table>
    399e:	mov    (%rcx,%rax,1),%eax
    39a1:	mov    %edx,%ecx
    39a3:	xor    %eax,%ecx
    39a5:	mov    %ebx,%eax
    39a7:	shr    $0x10,%eax
    39aa:	movzbl %al,%eax
    39ad:	mov    %eax,%eax
    39af:	add    $0x600,%rax
    39b5:	lea    0x0(,%rax,4),%rdx
    39bd:	lea    0x12b3c(%rip),%rax        # 16500 <crc_table>
    39c4:	mov    (%rdx,%rax,1),%eax
    39c7:	xor    %eax,%ecx
    39c9:	mov    %ebx,%eax
    39cb:	shr    $0x18,%eax
    39ce:	mov    %eax,%eax
    39d0:	add    $0x700,%rax
    39d6:	lea    0x0(,%rax,4),%rdx
    39de:	lea    0x12b1b(%rip),%rax        # 16500 <crc_table>
    39e5:	mov    (%rdx,%rax,1),%eax
    39e8:	mov    %ecx,%ebx
    39ea:	xor    %eax,%ebx
/home/rgesteve/projects/zlib-1.2.11/build/../crc32.c:324
    39ec:	subq   $0x20,-0x28(%rbp)
/home/rgesteve/projects/zlib-1.2.11/build/../crc32.c:322
    39f1:	cmpq   $0x1f,-0x28(%rbp)
    39f6:	ja     3544 <crc32_big+0xa3>
/home/rgesteve/projects/zlib-1.2.11/build/../crc32.c:326
    39fc:	jmpq   3a9b <crc32_big+0x5fa>
/home/rgesteve/projects/zlib-1.2.11/build/../crc32.c:327
    3a01:	mov    %r12,%rax
    3a04:	lea    0x4(%rax),%r12
    3a08:	mov    (%rax),%eax
    3a0a:	xor    %eax,%ebx
    3a0c:	movzbl %bl,%eax
    3a0f:	mov    %eax,%eax
    3a11:	add    $0x400,%rax
    3a17:	lea    0x0(,%rax,4),%rdx
    3a1f:	lea    0x12ada(%rip),%rax        # 16500 <crc_table>
    3a26:	mov    (%rdx,%rax,1),%edx
    3a29:	mov    %ebx,%eax
    3a2b:	shr    $0x8,%eax
    3a2e:	movzbl %al,%eax
    3a31:	mov    %eax,%eax
    3a33:	add    $0x500,%rax
    3a39:	lea    0x0(,%rax,4),%rcx
    3a41:	lea    0x12ab8(%rip),%rax        # 16500 <crc_table>
    3a48:	mov    (%rcx,%rax,1),%eax
    3a4b:	mov    %edx,%ecx
    3a4d:	xor    %eax,%ecx
    3a4f:	mov    %ebx,%eax
    3a51:	shr    $0x10,%eax
    3a54:	movzbl %al,%eax
    3a57:	mov    %eax,%eax
    3a59:	add    $0x600,%rax
    3a5f:	lea    0x0(,%rax,4),%rdx
    3a67:	lea    0x12a92(%rip),%rax        # 16500 <crc_table>
    3a6e:	mov    (%rdx,%rax,1),%eax
    3a71:	xor    %eax,%ecx
    3a73:	mov    %ebx,%eax
    3a75:	shr    $0x18,%eax
    3a78:	mov    %eax,%eax
    3a7a:	add    $0x700,%rax
    3a80:	lea    0x0(,%rax,4),%rdx
    3a88:	lea    0x12a71(%rip),%rax        # 16500 <crc_table>
    3a8f:	mov    (%rdx,%rax,1),%eax
    3a92:	mov    %ecx,%ebx
    3a94:	xor    %eax,%ebx
/home/rgesteve/projects/zlib-1.2.11/build/../crc32.c:328
    3a96:	subq   $0x4,-0x28(%rbp)
/home/rgesteve/projects/zlib-1.2.11/build/../crc32.c:326
    3a9b:	cmpq   $0x3,-0x28(%rbp)
    3aa0:	ja     3a01 <crc32_big+0x560>
/home/rgesteve/projects/zlib-1.2.11/build/../crc32.c:330
    3aa6:	mov    %r12,-0x20(%rbp)
/home/rgesteve/projects/zlib-1.2.11/build/../crc32.c:332
    3aaa:	cmpq   $0x0,-0x28(%rbp)
    3aaf:	je     3af9 <crc32_big+0x658>
/home/rgesteve/projects/zlib-1.2.11/build/../crc32.c:333 (discriminator 1)
    3ab1:	mov    %ebx,%ecx
    3ab3:	shr    $0x18,%ecx
    3ab6:	mov    -0x20(%rbp),%rax
    3aba:	lea    0x1(%rax),%rdx
    3abe:	mov    %rdx,-0x20(%rbp)
    3ac2:	movzbl (%rax),%eax
    3ac5:	movzbl %al,%eax
    3ac8:	xor    %ecx,%eax
    3aca:	mov    %eax,%eax
    3acc:	add    $0x400,%rax
    3ad2:	lea    0x0(,%rax,4),%rdx
    3ada:	lea    0x12a1f(%rip),%rax        # 16500 <crc_table>
    3ae1:	mov    (%rdx,%rax,1),%eax
    3ae4:	shl    $0x8,%ebx
    3ae7:	mov    %ebx,%edx
    3ae9:	xor    %edx,%eax
    3aeb:	mov    %eax,%ebx
/home/rgesteve/projects/zlib-1.2.11/build/../crc32.c:334 (discriminator 1)
    3aed:	subq   $0x1,-0x28(%rbp)
    3af2:	cmpq   $0x0,-0x28(%rbp)
    3af7:	jne    3ab1 <crc32_big+0x610>
/home/rgesteve/projects/zlib-1.2.11/build/../crc32.c:335
    3af9:	not    %ebx
/home/rgesteve/projects/zlib-1.2.11/build/../crc32.c:336
    3afb:	mov    %ebx,%edx
    3afd:	shr    $0x18,%edx
    3b00:	mov    %ebx,%eax
    3b02:	shr    $0x8,%eax
    3b05:	and    $0xff00,%eax
    3b0a:	add    %eax,%edx
    3b0c:	mov    %ebx,%eax
    3b0e:	shl    $0x8,%eax
    3b11:	and    $0xff0000,%eax
    3b16:	add    %eax,%edx
    3b18:	mov    %ebx,%eax
    3b1a:	shl    $0x18,%eax
    3b1d:	add    %edx,%eax
    3b1f:	mov    %eax,%eax
/home/rgesteve/projects/zlib-1.2.11/build/../crc32.c:337
    3b21:	pop    %rbx
    3b22:	pop    %r12
    3b24:	pop    %rbp
    3b25:	retq   

0000000000003b26 <gf2_matrix_times>:
gf2_matrix_times():
/home/rgesteve/projects/zlib-1.2.11/build/../crc32.c:347
    3b26:	push   %rbp
    3b27:	mov    %rsp,%rbp
    3b2a:	mov    %rdi,-0x18(%rbp)
    3b2e:	mov    %rsi,-0x20(%rbp)
/home/rgesteve/projects/zlib-1.2.11/build/../crc32.c:350
    3b32:	movq   $0x0,-0x8(%rbp)
/home/rgesteve/projects/zlib-1.2.11/build/../crc32.c:351
    3b3a:	jmp    3b5c <gf2_matrix_times+0x36>
/home/rgesteve/projects/zlib-1.2.11/build/../crc32.c:352
    3b3c:	mov    -0x20(%rbp),%rax
    3b40:	and    $0x1,%eax
    3b43:	test   %rax,%rax
    3b46:	je     3b53 <gf2_matrix_times+0x2d>
/home/rgesteve/projects/zlib-1.2.11/build/../crc32.c:353
    3b48:	mov    -0x18(%rbp),%rax
    3b4c:	mov    (%rax),%rax
    3b4f:	xor    %rax,-0x8(%rbp)
/home/rgesteve/projects/zlib-1.2.11/build/../crc32.c:354
    3b53:	shrq   -0x20(%rbp)
/home/rgesteve/projects/zlib-1.2.11/build/../crc32.c:355
    3b57:	addq   $0x8,-0x18(%rbp)
/home/rgesteve/projects/zlib-1.2.11/build/../crc32.c:351
    3b5c:	cmpq   $0x0,-0x20(%rbp)
    3b61:	jne    3b3c <gf2_matrix_times+0x16>
/home/rgesteve/projects/zlib-1.2.11/build/../crc32.c:357
    3b63:	mov    -0x8(%rbp),%rax
/home/rgesteve/projects/zlib-1.2.11/build/../crc32.c:358
    3b67:	pop    %rbp
    3b68:	retq   

0000000000003b69 <gf2_matrix_square>:
gf2_matrix_square():
/home/rgesteve/projects/zlib-1.2.11/build/../crc32.c:364
    3b69:	push   %rbp
    3b6a:	mov    %rsp,%rbp
    3b6d:	push   %rbx
    3b6e:	sub    $0x20,%rsp
    3b72:	mov    %rdi,-0x20(%rbp)
    3b76:	mov    %rsi,-0x28(%rbp)
/home/rgesteve/projects/zlib-1.2.11/build/../crc32.c:367
    3b7a:	movl   $0x0,-0xc(%rbp)
    3b81:	jmp    3bc5 <gf2_matrix_square+0x5c>
/home/rgesteve/projects/zlib-1.2.11/build/../crc32.c:368 (discriminator 3)
    3b83:	mov    -0xc(%rbp),%eax
    3b86:	cltq   
    3b88:	lea    0x0(,%rax,8),%rdx
    3b90:	mov    -0x28(%rbp),%rax
    3b94:	add    %rdx,%rax
    3b97:	mov    (%rax),%rdx
    3b9a:	mov    -0xc(%rbp),%eax
    3b9d:	cltq   
    3b9f:	lea    0x0(,%rax,8),%rcx
    3ba7:	mov    -0x20(%rbp),%rax
    3bab:	lea    (%rcx,%rax,1),%rbx
    3baf:	mov    -0x28(%rbp),%rax
    3bb3:	mov    %rdx,%rsi
    3bb6:	mov    %rax,%rdi
    3bb9:	callq  3b26 <gf2_matrix_times>
    3bbe:	mov    %rax,(%rbx)
/home/rgesteve/projects/zlib-1.2.11/build/../crc32.c:367 (discriminator 3)
    3bc1:	addl   $0x1,-0xc(%rbp)
/home/rgesteve/projects/zlib-1.2.11/build/../crc32.c:367 (discriminator 1)
    3bc5:	cmpl   $0x1f,-0xc(%rbp)
    3bc9:	jle    3b83 <gf2_matrix_square+0x1a>
/home/rgesteve/projects/zlib-1.2.11/build/../crc32.c:369
    3bcb:	nop
    3bcc:	add    $0x20,%rsp
    3bd0:	pop    %rbx
    3bd1:	pop    %rbp
    3bd2:	retq   

0000000000003bd3 <crc32_combine_>:
crc32_combine_():
/home/rgesteve/projects/zlib-1.2.11/build/../crc32.c:376
    3bd3:	push   %rbp
    3bd4:	mov    %rsp,%rbp
    3bd7:	sub    $0x240,%rsp
    3bde:	mov    %rdi,-0x228(%rbp)
    3be5:	mov    %rsi,-0x230(%rbp)
    3bec:	mov    %rdx,-0x238(%rbp)
    3bf3:	mov    %fs:0x28,%rax
    3bfc:	mov    %rax,-0x8(%rbp)
    3c00:	xor    %eax,%eax
/home/rgesteve/projects/zlib-1.2.11/build/../crc32.c:383
    3c02:	cmpq   $0x0,-0x238(%rbp)
    3c0a:	jg     3c18 <crc32_combine_+0x45>
/home/rgesteve/projects/zlib-1.2.11/build/../crc32.c:384
    3c0c:	mov    -0x228(%rbp),%rax
    3c13:	jmpq   3d69 <crc32_combine_+0x196>
/home/rgesteve/projects/zlib-1.2.11/build/../crc32.c:387
    3c18:	mov    $0xedb88320,%eax
    3c1d:	mov    %rax,-0x110(%rbp)
/home/rgesteve/projects/zlib-1.2.11/build/../crc32.c:388
    3c24:	movq   $0x1,-0x218(%rbp)
/home/rgesteve/projects/zlib-1.2.11/build/../crc32.c:389
    3c2f:	movl   $0x1,-0x21c(%rbp)
    3c39:	jmp    3c60 <crc32_combine_+0x8d>
/home/rgesteve/projects/zlib-1.2.11/build/../crc32.c:390 (discriminator 3)
    3c3b:	mov    -0x21c(%rbp),%eax
    3c41:	cltq   
    3c43:	mov    -0x218(%rbp),%rdx
    3c4a:	mov    %rdx,-0x110(%rbp,%rax,8)
/home/rgesteve/projects/zlib-1.2.11/build/../crc32.c:391 (discriminator 3)
    3c52:	shlq   -0x218(%rbp)
/home/rgesteve/projects/zlib-1.2.11/build/../crc32.c:389 (discriminator 3)
    3c59:	addl   $0x1,-0x21c(%rbp)
/home/rgesteve/projects/zlib-1.2.11/build/../crc32.c:389 (discriminator 1)
    3c60:	cmpl   $0x1f,-0x21c(%rbp)
    3c67:	jle    3c3b <crc32_combine_+0x68>
/home/rgesteve/projects/zlib-1.2.11/build/../crc32.c:395
    3c69:	lea    -0x110(%rbp),%rdx
    3c70:	lea    -0x210(%rbp),%rax
    3c77:	mov    %rdx,%rsi
    3c7a:	mov    %rax,%rdi
    3c7d:	callq  3b69 <gf2_matrix_square>
/home/rgesteve/projects/zlib-1.2.11/build/../crc32.c:398
    3c82:	lea    -0x210(%rbp),%rdx
    3c89:	lea    -0x110(%rbp),%rax
    3c90:	mov    %rdx,%rsi
    3c93:	mov    %rax,%rdi
    3c96:	callq  3b69 <gf2_matrix_square>
/home/rgesteve/projects/zlib-1.2.11/build/../crc32.c:404
    3c9b:	lea    -0x110(%rbp),%rdx
    3ca2:	lea    -0x210(%rbp),%rax
    3ca9:	mov    %rdx,%rsi
    3cac:	mov    %rax,%rdi
    3caf:	callq  3b69 <gf2_matrix_square>
/home/rgesteve/projects/zlib-1.2.11/build/../crc32.c:405
    3cb4:	mov    -0x238(%rbp),%rax
    3cbb:	and    $0x1,%eax
    3cbe:	test   %rax,%rax
    3cc1:	je     3ce3 <crc32_combine_+0x110>
/home/rgesteve/projects/zlib-1.2.11/build/../crc32.c:406
    3cc3:	mov    -0x228(%rbp),%rdx
    3cca:	lea    -0x210(%rbp),%rax
    3cd1:	mov    %rdx,%rsi
    3cd4:	mov    %rax,%rdi
    3cd7:	callq  3b26 <gf2_matrix_times>
    3cdc:	mov    %rax,-0x228(%rbp)
/home/rgesteve/projects/zlib-1.2.11/build/../crc32.c:407
    3ce3:	sarq   -0x238(%rbp)
/home/rgesteve/projects/zlib-1.2.11/build/../crc32.c:410
    3cea:	cmpq   $0x0,-0x238(%rbp)
    3cf2:	je     3d53 <crc32_combine_+0x180>
/home/rgesteve/projects/zlib-1.2.11/build/../crc32.c:414
    3cf4:	lea    -0x210(%rbp),%rdx
    3cfb:	lea    -0x110(%rbp),%rax
    3d02:	mov    %rdx,%rsi
    3d05:	mov    %rax,%rdi
    3d08:	callq  3b69 <gf2_matrix_square>
/home/rgesteve/projects/zlib-1.2.11/build/../crc32.c:415
    3d0d:	mov    -0x238(%rbp),%rax
    3d14:	and    $0x1,%eax
    3d17:	test   %rax,%rax
    3d1a:	je     3d3c <crc32_combine_+0x169>
/home/rgesteve/projects/zlib-1.2.11/build/../crc32.c:416
    3d1c:	mov    -0x228(%rbp),%rdx
    3d23:	lea    -0x110(%rbp),%rax
    3d2a:	mov    %rdx,%rsi
    3d2d:	mov    %rax,%rdi
    3d30:	callq  3b26 <gf2_matrix_times>
    3d35:	mov    %rax,-0x228(%rbp)
/home/rgesteve/projects/zlib-1.2.11/build/../crc32.c:417
    3d3c:	sarq   -0x238(%rbp)
/home/rgesteve/projects/zlib-1.2.11/build/../crc32.c:420
    3d43:	cmpq   $0x0,-0x238(%rbp)
    3d4b:	jne    3c9b <crc32_combine_+0xc8>
    3d51:	jmp    3d54 <crc32_combine_+0x181>
/home/rgesteve/projects/zlib-1.2.11/build/../crc32.c:411
    3d53:	nop
/home/rgesteve/projects/zlib-1.2.11/build/../crc32.c:423
    3d54:	mov    -0x230(%rbp),%rax
    3d5b:	xor    %rax,-0x228(%rbp)
/home/rgesteve/projects/zlib-1.2.11/build/../crc32.c:424
    3d62:	mov    -0x228(%rbp),%rax
/home/rgesteve/projects/zlib-1.2.11/build/../crc32.c:425 (discriminator 1)
    3d69:	mov    -0x8(%rbp),%rcx
    3d6d:	xor    %fs:0x28,%rcx
    3d76:	je     3d7d <crc32_combine_+0x1aa>
/home/rgesteve/projects/zlib-1.2.11/build/../crc32.c:425
    3d78:	callq  2150 <__stack_chk_fail@plt>
    3d7d:	leaveq 
    3d7e:	retq   

0000000000003d7f <crc32_combine>:
crc32_combine():
/home/rgesteve/projects/zlib-1.2.11/build/../crc32.c:432
    3d7f:	push   %rbp
    3d80:	mov    %rsp,%rbp
    3d83:	sub    $0x20,%rsp
    3d87:	mov    %rdi,-0x8(%rbp)
    3d8b:	mov    %rsi,-0x10(%rbp)
    3d8f:	mov    %rdx,-0x18(%rbp)
/home/rgesteve/projects/zlib-1.2.11/build/../crc32.c:433
    3d93:	mov    -0x18(%rbp),%rdx
    3d97:	mov    -0x10(%rbp),%rcx
    3d9b:	mov    -0x8(%rbp),%rax
    3d9f:	mov    %rcx,%rsi
    3da2:	mov    %rax,%rdi
    3da5:	callq  3bd3 <crc32_combine_>
/home/rgesteve/projects/zlib-1.2.11/build/../crc32.c:434
    3daa:	leaveq 
    3dab:	retq   

0000000000003dac <crc32_combine64>:
crc32_combine64():
/home/rgesteve/projects/zlib-1.2.11/build/../crc32.c:440
    3dac:	push   %rbp
    3dad:	mov    %rsp,%rbp
    3db0:	sub    $0x20,%rsp
    3db4:	mov    %rdi,-0x8(%rbp)
    3db8:	mov    %rsi,-0x10(%rbp)
    3dbc:	mov    %rdx,-0x18(%rbp)
/home/rgesteve/projects/zlib-1.2.11/build/../crc32.c:441
    3dc0:	mov    -0x18(%rbp),%rdx
    3dc4:	mov    -0x10(%rbp),%rcx
    3dc8:	mov    -0x8(%rbp),%rax
    3dcc:	mov    %rcx,%rsi
    3dcf:	mov    %rax,%rdi
    3dd2:	callq  3bd3 <crc32_combine_>
/home/rgesteve/projects/zlib-1.2.11/build/../crc32.c:442
    3dd7:	leaveq 
    3dd8:	retq   

0000000000003dd9 <slide_hash>:
slide_hash():
/home/rgesteve/projects/zlib-1.2.11/build/../deflate.c:203
    3dd9:	push   %rbp
    3dda:	mov    %rsp,%rbp
    3ddd:	mov    %rdi,-0x28(%rbp)
/home/rgesteve/projects/zlib-1.2.11/build/../deflate.c:206
    3de1:	mov    -0x28(%rbp),%rax
    3de5:	mov    0x50(%rax),%eax
    3de8:	mov    %eax,-0x10(%rbp)
/home/rgesteve/projects/zlib-1.2.11/build/../deflate.c:208
    3deb:	mov    -0x28(%rbp),%rax
    3def:	mov    0x84(%rax),%eax
    3df5:	mov    %eax,-0x14(%rbp)
/home/rgesteve/projects/zlib-1.2.11/build/../deflate.c:209
    3df8:	mov    -0x28(%rbp),%rax
    3dfc:	mov    0x78(%rax),%rax
    3e00:	mov    -0x14(%rbp),%edx
    3e03:	add    %rdx,%rdx
    3e06:	add    %rdx,%rax
    3e09:	mov    %rax,-0x8(%rbp)
/home/rgesteve/projects/zlib-1.2.11/build/../deflate.c:211
    3e0d:	subq   $0x2,-0x8(%rbp)
    3e12:	mov    -0x8(%rbp),%rax
    3e16:	movzwl (%rax),%eax
    3e19:	movzwl %ax,%eax
    3e1c:	mov    %eax,-0xc(%rbp)
/home/rgesteve/projects/zlib-1.2.11/build/../deflate.c:212
    3e1f:	mov    -0xc(%rbp),%eax
    3e22:	cmp    -0x10(%rbp),%eax
    3e25:	jb     3e31 <slide_hash+0x58>
/home/rgesteve/projects/zlib-1.2.11/build/../deflate.c:212 (discriminator 1)
    3e27:	mov    -0xc(%rbp),%eax
    3e2a:	sub    -0x10(%rbp),%eax
    3e2d:	mov    %eax,%edx
    3e2f:	jmp    3e36 <slide_hash+0x5d>
/home/rgesteve/projects/zlib-1.2.11/build/../deflate.c:212 (discriminator 2)
    3e31:	mov    $0x0,%edx
/home/rgesteve/projects/zlib-1.2.11/build/../deflate.c:212 (discriminator 4)
    3e36:	mov    -0x8(%rbp),%rax
    3e3a:	mov    %dx,(%rax)
/home/rgesteve/projects/zlib-1.2.11/build/../deflate.c:213 (discriminator 4)
    3e3d:	subl   $0x1,-0x14(%rbp)
    3e41:	cmpl   $0x0,-0x14(%rbp)
    3e45:	jne    3e0d <slide_hash+0x34>
/home/rgesteve/projects/zlib-1.2.11/build/../deflate.c:214
    3e47:	mov    -0x10(%rbp),%eax
    3e4a:	mov    %eax,-0x14(%rbp)
/home/rgesteve/projects/zlib-1.2.11/build/../deflate.c:216
    3e4d:	mov    -0x28(%rbp),%rax
    3e51:	mov    0x70(%rax),%rax
    3e55:	mov    -0x14(%rbp),%edx
    3e58:	add    %rdx,%rdx
    3e5b:	add    %rdx,%rax
    3e5e:	mov    %rax,-0x8(%rbp)
/home/rgesteve/projects/zlib-1.2.11/build/../deflate.c:218
    3e62:	subq   $0x2,-0x8(%rbp)
    3e67:	mov    -0x8(%rbp),%rax
    3e6b:	movzwl (%rax),%eax
    3e6e:	movzwl %ax,%eax
    3e71:	mov    %eax,-0xc(%rbp)
/home/rgesteve/projects/zlib-1.2.11/build/../deflate.c:219
    3e74:	mov    -0xc(%rbp),%eax
    3e77:	cmp    -0x10(%rbp),%eax
    3e7a:	jb     3e86 <slide_hash+0xad>
/home/rgesteve/projects/zlib-1.2.11/build/../deflate.c:219 (discriminator 1)
    3e7c:	mov    -0xc(%rbp),%eax
    3e7f:	sub    -0x10(%rbp),%eax
    3e82:	mov    %eax,%edx
    3e84:	jmp    3e8b <slide_hash+0xb2>
/home/rgesteve/projects/zlib-1.2.11/build/../deflate.c:219 (discriminator 2)
    3e86:	mov    $0x0,%edx
/home/rgesteve/projects/zlib-1.2.11/build/../deflate.c:219 (discriminator 4)
    3e8b:	mov    -0x8(%rbp),%rax
    3e8f:	mov    %dx,(%rax)
/home/rgesteve/projects/zlib-1.2.11/build/../deflate.c:223 (discriminator 4)
    3e92:	subl   $0x1,-0x14(%rbp)
    3e96:	cmpl   $0x0,-0x14(%rbp)
    3e9a:	jne    3e62 <slide_hash+0x89>
/home/rgesteve/projects/zlib-1.2.11/build/../deflate.c:225
    3e9c:	nop
    3e9d:	pop    %rbp
    3e9e:	retq   

0000000000003e9f <deflateInit_>:
deflateInit_():
/home/rgesteve/projects/zlib-1.2.11/build/../deflate.c:233
    3e9f:	push   %rbp
    3ea0:	mov    %rsp,%rbp
    3ea3:	sub    $0x20,%rsp
    3ea7:	mov    %rdi,-0x8(%rbp)
    3eab:	mov    %esi,-0xc(%rbp)
    3eae:	mov    %rdx,-0x18(%rbp)
    3eb2:	mov    %ecx,-0x10(%rbp)
/home/rgesteve/projects/zlib-1.2.11/build/../deflate.c:234
    3eb5:	mov    -0xc(%rbp),%esi
    3eb8:	mov    -0x8(%rbp),%rax
    3ebc:	mov    -0x10(%rbp),%edx
    3ebf:	push   %rdx
    3ec0:	pushq  -0x18(%rbp)
    3ec3:	mov    $0x0,%r9d
    3ec9:	mov    $0x8,%r8d
    3ecf:	mov    $0xf,%ecx
    3ed4:	mov    $0x8,%edx
    3ed9:	mov    %rax,%rdi
    3edc:	callq  21c0 <deflateInit2_@plt>
    3ee1:	add    $0x10,%rsp
/home/rgesteve/projects/zlib-1.2.11/build/../deflate.c:237
    3ee5:	leaveq 
    3ee6:	retq   

0000000000003ee7 <deflateInit2_>:
deflateInit2_():
/home/rgesteve/projects/zlib-1.2.11/build/../deflate.c:250
    3ee7:	push   %rbp
    3ee8:	mov    %rsp,%rbp
    3eeb:	sub    $0x40,%rsp
    3eef:	mov    %rdi,-0x28(%rbp)
    3ef3:	mov    %esi,-0x2c(%rbp)
    3ef6:	mov    %edx,-0x30(%rbp)
    3ef9:	mov    %ecx,-0x34(%rbp)
    3efc:	mov    %r8d,-0x38(%rbp)
    3f00:	mov    %r9d,-0x3c(%rbp)
/home/rgesteve/projects/zlib-1.2.11/build/../deflate.c:252
    3f04:	movl   $0x1,-0x14(%rbp)
/home/rgesteve/projects/zlib-1.2.11/build/../deflate.c:260
    3f0b:	cmpq   $0x0,0x10(%rbp)
    3f10:	je     3f2a <deflateInit2_+0x43>
/home/rgesteve/projects/zlib-1.2.11/build/../deflate.c:260 (discriminator 1)
    3f12:	mov    0x10(%rbp),%rax
    3f16:	movzbl (%rax),%edx
    3f19:	movzbl 0x14625(%rip),%eax        # 18545 <my_version.3731>
    3f20:	cmp    %al,%dl
    3f22:	jne    3f2a <deflateInit2_+0x43>
/home/rgesteve/projects/zlib-1.2.11/build/../deflate.c:260 (discriminator 2)
    3f24:	cmpl   $0x70,0x18(%rbp)
    3f28:	je     3f34 <deflateInit2_+0x4d>
/home/rgesteve/projects/zlib-1.2.11/build/../deflate.c:262
    3f2a:	mov    $0xfffffffa,%eax
    3f2f:	jmpq   4314 <deflateInit2_+0x42d>
/home/rgesteve/projects/zlib-1.2.11/build/../deflate.c:264
    3f34:	cmpq   $0x0,-0x28(%rbp)
    3f39:	jne    3f45 <deflateInit2_+0x5e>
/home/rgesteve/projects/zlib-1.2.11/build/../deflate.c:264 (discriminator 1)
    3f3b:	mov    $0xfffffffe,%eax
    3f40:	jmpq   4314 <deflateInit2_+0x42d>
/home/rgesteve/projects/zlib-1.2.11/build/../deflate.c:266
    3f45:	mov    -0x28(%rbp),%rax
    3f49:	movq   $0x0,0x30(%rax)
/home/rgesteve/projects/zlib-1.2.11/build/../deflate.c:267
    3f51:	mov    -0x28(%rbp),%rax
    3f55:	mov    0x40(%rax),%rax
    3f59:	test   %rax,%rax
    3f5c:	jne    3f79 <deflateInit2_+0x92>
/home/rgesteve/projects/zlib-1.2.11/build/../deflate.c:271
    3f5e:	mov    -0x28(%rbp),%rax
    3f62:	lea    0x12522(%rip),%rdx        # 1648b <zcalloc>
    3f69:	mov    %rdx,0x40(%rax)
/home/rgesteve/projects/zlib-1.2.11/build/../deflate.c:272
    3f6d:	mov    -0x28(%rbp),%rax
    3f71:	movq   $0x0,0x50(%rax)
/home/rgesteve/projects/zlib-1.2.11/build/../deflate.c:275
    3f79:	mov    -0x28(%rbp),%rax
    3f7d:	mov    0x48(%rax),%rax
    3f81:	test   %rax,%rax
    3f84:	jne    3f95 <deflateInit2_+0xae>
/home/rgesteve/projects/zlib-1.2.11/build/../deflate.c:279
    3f86:	mov    -0x28(%rbp),%rax
    3f8a:	lea    0x1251f(%rip),%rdx        # 164b0 <zcfree>
    3f91:	mov    %rdx,0x48(%rax)
/home/rgesteve/projects/zlib-1.2.11/build/../deflate.c:285
    3f95:	cmpl   $0xffffffff,-0x2c(%rbp)
    3f99:	jne    3fa2 <deflateInit2_+0xbb>
/home/rgesteve/projects/zlib-1.2.11/build/../deflate.c:285 (discriminator 1)
    3f9b:	movl   $0x6,-0x2c(%rbp)
/home/rgesteve/projects/zlib-1.2.11/build/../deflate.c:288
    3fa2:	cmpl   $0x0,-0x34(%rbp)
    3fa6:	jns    3fb4 <deflateInit2_+0xcd>
/home/rgesteve/projects/zlib-1.2.11/build/../deflate.c:289
    3fa8:	movl   $0x0,-0x14(%rbp)
/home/rgesteve/projects/zlib-1.2.11/build/../deflate.c:290
    3faf:	negl   -0x34(%rbp)
    3fb2:	jmp    3fc5 <deflateInit2_+0xde>
/home/rgesteve/projects/zlib-1.2.11/build/../deflate.c:293
    3fb4:	cmpl   $0xf,-0x34(%rbp)
    3fb8:	jle    3fc5 <deflateInit2_+0xde>
/home/rgesteve/projects/zlib-1.2.11/build/../deflate.c:294
    3fba:	movl   $0x2,-0x14(%rbp)
/home/rgesteve/projects/zlib-1.2.11/build/../deflate.c:295
    3fc1:	subl   $0x10,-0x34(%rbp)
/home/rgesteve/projects/zlib-1.2.11/build/../deflate.c:298
    3fc5:	cmpl   $0x0,-0x38(%rbp)
    3fc9:	jle    4007 <deflateInit2_+0x120>
/home/rgesteve/projects/zlib-1.2.11/build/../deflate.c:298 (discriminator 1)
    3fcb:	cmpl   $0x9,-0x38(%rbp)
    3fcf:	jg     4007 <deflateInit2_+0x120>
/home/rgesteve/projects/zlib-1.2.11/build/../deflate.c:298 (discriminator 2)
    3fd1:	cmpl   $0x8,-0x30(%rbp)
    3fd5:	jne    4007 <deflateInit2_+0x120>
/home/rgesteve/projects/zlib-1.2.11/build/../deflate.c:298 (discriminator 3)
    3fd7:	cmpl   $0x7,-0x34(%rbp)
    3fdb:	jle    4007 <deflateInit2_+0x120>
/home/rgesteve/projects/zlib-1.2.11/build/../deflate.c:299
    3fdd:	cmpl   $0xf,-0x34(%rbp)
    3fe1:	jg     4007 <deflateInit2_+0x120>
/home/rgesteve/projects/zlib-1.2.11/build/../deflate.c:299 (discriminator 1)
    3fe3:	cmpl   $0x0,-0x2c(%rbp)
    3fe7:	js     4007 <deflateInit2_+0x120>
/home/rgesteve/projects/zlib-1.2.11/build/../deflate.c:299 (discriminator 2)
    3fe9:	cmpl   $0x9,-0x2c(%rbp)
    3fed:	jg     4007 <deflateInit2_+0x120>
/home/rgesteve/projects/zlib-1.2.11/build/../deflate.c:299 (discriminator 3)
    3fef:	cmpl   $0x0,-0x3c(%rbp)
    3ff3:	js     4007 <deflateInit2_+0x120>
/home/rgesteve/projects/zlib-1.2.11/build/../deflate.c:300
    3ff5:	cmpl   $0x4,-0x3c(%rbp)
    3ff9:	jg     4007 <deflateInit2_+0x120>
/home/rgesteve/projects/zlib-1.2.11/build/../deflate.c:300 (discriminator 1)
    3ffb:	cmpl   $0x8,-0x34(%rbp)
    3fff:	jne    4011 <deflateInit2_+0x12a>
/home/rgesteve/projects/zlib-1.2.11/build/../deflate.c:300 (discriminator 2)
    4001:	cmpl   $0x1,-0x14(%rbp)
    4005:	je     4011 <deflateInit2_+0x12a>
/home/rgesteve/projects/zlib-1.2.11/build/../deflate.c:301
    4007:	mov    $0xfffffffe,%eax
    400c:	jmpq   4314 <deflateInit2_+0x42d>
/home/rgesteve/projects/zlib-1.2.11/build/../deflate.c:303
    4011:	cmpl   $0x8,-0x34(%rbp)
    4015:	jne    401e <deflateInit2_+0x137>
/home/rgesteve/projects/zlib-1.2.11/build/../deflate.c:303 (discriminator 1)
    4017:	movl   $0x9,-0x34(%rbp)
/home/rgesteve/projects/zlib-1.2.11/build/../deflate.c:304
    401e:	mov    -0x28(%rbp),%rax
    4022:	mov    0x40(%rax),%rax
    4026:	mov    -0x28(%rbp),%rdx
    402a:	mov    0x50(%rdx),%rcx
    402e:	mov    $0x1740,%edx
    4033:	mov    $0x1,%esi
    4038:	mov    %rcx,%rdi
    403b:	callq  *%rax
    403d:	mov    %rax,-0x10(%rbp)
/home/rgesteve/projects/zlib-1.2.11/build/../deflate.c:305
    4041:	cmpq   $0x0,-0x10(%rbp)
    4046:	jne    4052 <deflateInit2_+0x16b>
/home/rgesteve/projects/zlib-1.2.11/build/../deflate.c:305 (discriminator 1)
    4048:	mov    $0xfffffffc,%eax
    404d:	jmpq   4314 <deflateInit2_+0x42d>
/home/rgesteve/projects/zlib-1.2.11/build/../deflate.c:306
    4052:	mov    -0x28(%rbp),%rax
    4056:	mov    -0x10(%rbp),%rdx
    405a:	mov    %rdx,0x38(%rax)
/home/rgesteve/projects/zlib-1.2.11/build/../deflate.c:307
    405e:	mov    -0x10(%rbp),%rax
    4062:	mov    -0x28(%rbp),%rdx
    4066:	mov    %rdx,(%rax)
/home/rgesteve/projects/zlib-1.2.11/build/../deflate.c:308
    4069:	mov    -0x10(%rbp),%rax
    406d:	movl   $0x2a,0x8(%rax)
/home/rgesteve/projects/zlib-1.2.11/build/../deflate.c:310
    4074:	mov    -0x10(%rbp),%rax
    4078:	mov    -0x14(%rbp),%edx
    407b:	mov    %edx,0x30(%rax)
/home/rgesteve/projects/zlib-1.2.11/build/../deflate.c:311
    407e:	mov    -0x10(%rbp),%rax
    4082:	movq   $0x0,0x38(%rax)
/home/rgesteve/projects/zlib-1.2.11/build/../deflate.c:312
    408a:	mov    -0x34(%rbp),%edx
    408d:	mov    -0x10(%rbp),%rax
    4091:	mov    %edx,0x54(%rax)
/home/rgesteve/projects/zlib-1.2.11/build/../deflate.c:313
    4094:	mov    -0x10(%rbp),%rax
    4098:	mov    0x54(%rax),%eax
    409b:	mov    $0x1,%edx
    40a0:	mov    %eax,%ecx
    40a2:	shl    %cl,%edx
    40a4:	mov    %edx,%eax
    40a6:	mov    %eax,%edx
    40a8:	mov    -0x10(%rbp),%rax
    40ac:	mov    %edx,0x50(%rax)
/home/rgesteve/projects/zlib-1.2.11/build/../deflate.c:314
    40af:	mov    -0x10(%rbp),%rax
    40b3:	mov    0x50(%rax),%eax
    40b6:	lea    -0x1(%rax),%edx
    40b9:	mov    -0x10(%rbp),%rax
    40bd:	mov    %edx,0x58(%rax)
/home/rgesteve/projects/zlib-1.2.11/build/../deflate.c:316
    40c0:	mov    -0x38(%rbp),%eax
    40c3:	lea    0x7(%rax),%edx
    40c6:	mov    -0x10(%rbp),%rax
    40ca:	mov    %edx,0x88(%rax)
/home/rgesteve/projects/zlib-1.2.11/build/../deflate.c:317
    40d0:	mov    -0x10(%rbp),%rax
    40d4:	mov    0x88(%rax),%eax
    40da:	mov    $0x1,%edx
    40df:	mov    %eax,%ecx
    40e1:	shl    %cl,%edx
    40e3:	mov    %edx,%eax
    40e5:	mov    %eax,%edx
    40e7:	mov    -0x10(%rbp),%rax
    40eb:	mov    %edx,0x84(%rax)
/home/rgesteve/projects/zlib-1.2.11/build/../deflate.c:318
    40f1:	mov    -0x10(%rbp),%rax
    40f5:	mov    0x84(%rax),%eax
    40fb:	lea    -0x1(%rax),%edx
    40fe:	mov    -0x10(%rbp),%rax
    4102:	mov    %edx,0x8c(%rax)
/home/rgesteve/projects/zlib-1.2.11/build/../deflate.c:319
    4108:	mov    -0x10(%rbp),%rax
    410c:	mov    0x88(%rax),%eax
    4112:	add    $0x2,%eax
    4115:	mov    $0xaaaaaaab,%edx
    411a:	mul    %edx
    411c:	shr    %edx
    411e:	mov    -0x10(%rbp),%rax
    4122:	mov    %edx,0x90(%rax)
/home/rgesteve/projects/zlib-1.2.11/build/../deflate.c:321
    4128:	mov    -0x28(%rbp),%rax
    412c:	mov    0x40(%rax),%rax
    4130:	mov    -0x10(%rbp),%rdx
    4134:	mov    0x50(%rdx),%esi
    4137:	mov    -0x28(%rbp),%rdx
    413b:	mov    0x50(%rdx),%rcx
    413f:	mov    $0x2,%edx
    4144:	mov    %rcx,%rdi
    4147:	callq  *%rax
    4149:	mov    %rax,%rdx
    414c:	mov    -0x10(%rbp),%rax
    4150:	mov    %rdx,0x60(%rax)
/home/rgesteve/projects/zlib-1.2.11/build/../deflate.c:322
    4154:	mov    -0x28(%rbp),%rax
    4158:	mov    0x40(%rax),%rax
    415c:	mov    -0x10(%rbp),%rdx
    4160:	mov    0x50(%rdx),%esi
    4163:	mov    -0x28(%rbp),%rdx
    4167:	mov    0x50(%rdx),%rcx
    416b:	mov    $0x2,%edx
    4170:	mov    %rcx,%rdi
    4173:	callq  *%rax
    4175:	mov    %rax,%rdx
    4178:	mov    -0x10(%rbp),%rax
    417c:	mov    %rdx,0x70(%rax)
/home/rgesteve/projects/zlib-1.2.11/build/../deflate.c:323
    4180:	mov    -0x28(%rbp),%rax
    4184:	mov    0x40(%rax),%rax
    4188:	mov    -0x10(%rbp),%rdx
    418c:	mov    0x84(%rdx),%esi
    4192:	mov    -0x28(%rbp),%rdx
    4196:	mov    0x50(%rdx),%rcx
    419a:	mov    $0x2,%edx
    419f:	mov    %rcx,%rdi
    41a2:	callq  *%rax
    41a4:	mov    %rax,%rdx
    41a7:	mov    -0x10(%rbp),%rax
    41ab:	mov    %rdx,0x78(%rax)
/home/rgesteve/projects/zlib-1.2.11/build/../deflate.c:325
    41af:	mov    -0x10(%rbp),%rax
    41b3:	movq   $0x0,0x1738(%rax)
/home/rgesteve/projects/zlib-1.2.11/build/../deflate.c:327
    41be:	mov    -0x38(%rbp),%eax
    41c1:	add    $0x6,%eax
    41c4:	mov    $0x1,%edx
    41c9:	mov    %eax,%ecx
    41cb:	shl    %cl,%edx
    41cd:	mov    %edx,%eax
    41cf:	mov    %eax,%edx
    41d1:	mov    -0x10(%rbp),%rax
    41d5:	mov    %edx,0x1708(%rax)
/home/rgesteve/projects/zlib-1.2.11/build/../deflate.c:329
    41db:	mov    -0x28(%rbp),%rax
    41df:	mov    0x40(%rax),%rax
    41e3:	mov    -0x10(%rbp),%rdx
    41e7:	mov    0x1708(%rdx),%esi
    41ed:	mov    -0x28(%rbp),%rdx
    41f1:	mov    0x50(%rdx),%rcx
    41f5:	mov    $0x4,%edx
    41fa:	mov    %rcx,%rdi
    41fd:	callq  *%rax
    41ff:	mov    %rax,-0x8(%rbp)
/home/rgesteve/projects/zlib-1.2.11/build/../deflate.c:330
    4203:	mov    -0x10(%rbp),%rax
    4207:	mov    -0x8(%rbp),%rdx
    420b:	mov    %rdx,0x10(%rax)
/home/rgesteve/projects/zlib-1.2.11/build/../deflate.c:331
    420f:	mov    -0x10(%rbp),%rax
    4213:	mov    0x1708(%rax),%eax
    4219:	mov    %eax,%eax
    421b:	lea    0x0(,%rax,4),%rdx
    4223:	mov    -0x10(%rbp),%rax
    4227:	mov    %rdx,0x18(%rax)
/home/rgesteve/projects/zlib-1.2.11/build/../deflate.c:333
    422b:	mov    -0x10(%rbp),%rax
    422f:	mov    0x60(%rax),%rax
    4233:	test   %rax,%rax
    4236:	je     425f <deflateInit2_+0x378>
/home/rgesteve/projects/zlib-1.2.11/build/../deflate.c:333 (discriminator 1)
    4238:	mov    -0x10(%rbp),%rax
    423c:	mov    0x70(%rax),%rax
    4240:	test   %rax,%rax
    4243:	je     425f <deflateInit2_+0x378>
/home/rgesteve/projects/zlib-1.2.11/build/../deflate.c:333 (discriminator 2)
    4245:	mov    -0x10(%rbp),%rax
    4249:	mov    0x78(%rax),%rax
    424d:	test   %rax,%rax
    4250:	je     425f <deflateInit2_+0x378>
/home/rgesteve/projects/zlib-1.2.11/build/../deflate.c:334 (discriminator 3)
    4252:	mov    -0x10(%rbp),%rax
    4256:	mov    0x10(%rax),%rax
/home/rgesteve/projects/zlib-1.2.11/build/../deflate.c:333 (discriminator 3)
    425a:	test   %rax,%rax
    425d:	jne    4293 <deflateInit2_+0x3ac>
/home/rgesteve/projects/zlib-1.2.11/build/../deflate.c:335
    425f:	mov    -0x10(%rbp),%rax
    4263:	movl   $0x29a,0x8(%rax)
/home/rgesteve/projects/zlib-1.2.11/build/../deflate.c:336
    426a:	lea    0x218b2f(%rip),%rax        # 21cda0 <z_errmsg>
    4271:	mov    0x30(%rax),%rdx
    4275:	mov    -0x28(%rbp),%rax
    4279:	mov    %rdx,0x30(%rax)
/home/rgesteve/projects/zlib-1.2.11/build/../deflate.c:337
    427d:	mov    -0x28(%rbp),%rax
    4281:	mov    %rax,%rdi
    4284:	callq  2270 <deflateEnd@plt>
/home/rgesteve/projects/zlib-1.2.11/build/../deflate.c:338
    4289:	mov    $0xfffffffc,%eax
    428e:	jmpq   4314 <deflateInit2_+0x42d>
/home/rgesteve/projects/zlib-1.2.11/build/../deflate.c:340
    4293:	mov    -0x10(%rbp),%rax
    4297:	mov    0x1708(%rax),%eax
    429d:	shr    %eax
    429f:	mov    %eax,%eax
    42a1:	lea    (%rax,%rax,1),%rdx
    42a5:	mov    -0x8(%rbp),%rax
    42a9:	add    %rax,%rdx
    42ac:	mov    -0x10(%rbp),%rax
    42b0:	mov    %rdx,0x1710(%rax)
/home/rgesteve/projects/zlib-1.2.11/build/../deflate.c:341
    42b7:	mov    -0x10(%rbp),%rax
    42bb:	mov    0x10(%rax),%rdx
    42bf:	mov    -0x10(%rbp),%rax
    42c3:	mov    0x1708(%rax),%eax
    42c9:	mov    %eax,%ecx
    42cb:	mov    %rcx,%rax
    42ce:	add    %rax,%rax
    42d1:	add    %rcx,%rax
    42d4:	add    %rax,%rdx
    42d7:	mov    -0x10(%rbp),%rax
    42db:	mov    %rdx,0x1700(%rax)
/home/rgesteve/projects/zlib-1.2.11/build/../deflate.c:343
    42e2:	mov    -0x10(%rbp),%rax
    42e6:	mov    -0x2c(%rbp),%edx
    42e9:	mov    %edx,0xc4(%rax)
/home/rgesteve/projects/zlib-1.2.11/build/../deflate.c:344
    42ef:	mov    -0x10(%rbp),%rax
    42f3:	mov    -0x3c(%rbp),%edx
    42f6:	mov    %edx,0xc8(%rax)
/home/rgesteve/projects/zlib-1.2.11/build/../deflate.c:345
    42fc:	mov    -0x30(%rbp),%eax
    42ff:	mov    %eax,%edx
    4301:	mov    -0x10(%rbp),%rax
    4305:	mov    %dl,0x48(%rax)
/home/rgesteve/projects/zlib-1.2.11/build/../deflate.c:347
    4308:	mov    -0x28(%rbp),%rax
    430c:	mov    %rax,%rdi
    430f:	callq  2170 <deflateReset@plt>
/home/rgesteve/projects/zlib-1.2.11/build/../deflate.c:348
    4314:	leaveq 
    4315:	retq   

0000000000004316 <deflateStateCheck>:
deflateStateCheck():
/home/rgesteve/projects/zlib-1.2.11/build/../deflate.c:355
    4316:	push   %rbp
    4317:	mov    %rsp,%rbp
    431a:	mov    %rdi,-0x18(%rbp)
/home/rgesteve/projects/zlib-1.2.11/build/../deflate.c:357
    431e:	cmpq   $0x0,-0x18(%rbp)
    4323:	je     433f <deflateStateCheck+0x29>
/home/rgesteve/projects/zlib-1.2.11/build/../deflate.c:358 (discriminator 1)
    4325:	mov    -0x18(%rbp),%rax
    4329:	mov    0x40(%rax),%rax
/home/rgesteve/projects/zlib-1.2.11/build/../deflate.c:357 (discriminator 1)
    432d:	test   %rax,%rax
    4330:	je     433f <deflateStateCheck+0x29>
/home/rgesteve/projects/zlib-1.2.11/build/../deflate.c:358
    4332:	mov    -0x18(%rbp),%rax
    4336:	mov    0x48(%rax),%rax
    433a:	test   %rax,%rax
    433d:	jne    4349 <deflateStateCheck+0x33>
/home/rgesteve/projects/zlib-1.2.11/build/../deflate.c:359
    433f:	mov    $0x1,%eax
    4344:	jmpq   43d7 <deflateStateCheck+0xc1>
/home/rgesteve/projects/zlib-1.2.11/build/../deflate.c:360
    4349:	mov    -0x18(%rbp),%rax
    434d:	mov    0x38(%rax),%rax
    4351:	mov    %rax,-0x8(%rbp)
/home/rgesteve/projects/zlib-1.2.11/build/../deflate.c:361
    4355:	cmpq   $0x0,-0x8(%rbp)
    435a:	je     43cb <deflateStateCheck+0xb5>
/home/rgesteve/projects/zlib-1.2.11/build/../deflate.c:361 (discriminator 1)
    435c:	mov    -0x8(%rbp),%rax
    4360:	mov    (%rax),%rax
    4363:	cmp    %rax,-0x18(%rbp)
    4367:	jne    43cb <deflateStateCheck+0xb5>
/home/rgesteve/projects/zlib-1.2.11/build/../deflate.c:361 (discriminator 2)
    4369:	mov    -0x8(%rbp),%rax
    436d:	mov    0x8(%rax),%eax
    4370:	cmp    $0x2a,%eax
    4373:	je     43d2 <deflateStateCheck+0xbc>
/home/rgesteve/projects/zlib-1.2.11/build/../deflate.c:363 (discriminator 3)
    4375:	mov    -0x8(%rbp),%rax
    4379:	mov    0x8(%rax),%eax
/home/rgesteve/projects/zlib-1.2.11/build/../deflate.c:361 (discriminator 3)
    437c:	cmp    $0x39,%eax
    437f:	je     43d2 <deflateStateCheck+0xbc>
/home/rgesteve/projects/zlib-1.2.11/build/../deflate.c:365
    4381:	mov    -0x8(%rbp),%rax
    4385:	mov    0x8(%rax),%eax
/home/rgesteve/projects/zlib-1.2.11/build/../deflate.c:363
    4388:	cmp    $0x45,%eax
    438b:	je     43d2 <deflateStateCheck+0xbc>
/home/rgesteve/projects/zlib-1.2.11/build/../deflate.c:366
    438d:	mov    -0x8(%rbp),%rax
    4391:	mov    0x8(%rax),%eax
/home/rgesteve/projects/zlib-1.2.11/build/../deflate.c:365
    4394:	cmp    $0x49,%eax
    4397:	je     43d2 <deflateStateCheck+0xbc>
/home/rgesteve/projects/zlib-1.2.11/build/../deflate.c:367
    4399:	mov    -0x8(%rbp),%rax
    439d:	mov    0x8(%rax),%eax
/home/rgesteve/projects/zlib-1.2.11/build/../deflate.c:366
    43a0:	cmp    $0x5b,%eax
    43a3:	je     43d2 <deflateStateCheck+0xbc>
/home/rgesteve/projects/zlib-1.2.11/build/../deflate.c:368
    43a5:	mov    -0x8(%rbp),%rax
    43a9:	mov    0x8(%rax),%eax
/home/rgesteve/projects/zlib-1.2.11/build/../deflate.c:367
    43ac:	cmp    $0x67,%eax
    43af:	je     43d2 <deflateStateCheck+0xbc>
/home/rgesteve/projects/zlib-1.2.11/build/../deflate.c:369
    43b1:	mov    -0x8(%rbp),%rax
    43b5:	mov    0x8(%rax),%eax
/home/rgesteve/projects/zlib-1.2.11/build/../deflate.c:368
    43b8:	cmp    $0x71,%eax
    43bb:	je     43d2 <deflateStateCheck+0xbc>
/home/rgesteve/projects/zlib-1.2.11/build/../deflate.c:370
    43bd:	mov    -0x8(%rbp),%rax
    43c1:	mov    0x8(%rax),%eax
/home/rgesteve/projects/zlib-1.2.11/build/../deflate.c:369
    43c4:	cmp    $0x29a,%eax
    43c9:	je     43d2 <deflateStateCheck+0xbc>
/home/rgesteve/projects/zlib-1.2.11/build/../deflate.c:371
    43cb:	mov    $0x1,%eax
    43d0:	jmp    43d7 <deflateStateCheck+0xc1>
/home/rgesteve/projects/zlib-1.2.11/build/../deflate.c:372
    43d2:	mov    $0x0,%eax
/home/rgesteve/projects/zlib-1.2.11/build/../deflate.c:373
    43d7:	pop    %rbp
    43d8:	retq   

00000000000043d9 <deflateSetDictionary>:
deflateSetDictionary():
/home/rgesteve/projects/zlib-1.2.11/build/../deflate.c:380
    43d9:	push   %rbp
    43da:	mov    %rsp,%rbp
    43dd:	sub    $0x40,%rsp
    43e1:	mov    %rdi,-0x28(%rbp)
    43e5:	mov    %rsi,-0x30(%rbp)
    43e9:	mov    %edx,-0x34(%rbp)
/home/rgesteve/projects/zlib-1.2.11/build/../deflate.c:387
    43ec:	mov    -0x28(%rbp),%rax
    43f0:	mov    %rax,%rdi
    43f3:	callq  4316 <deflateStateCheck>
    43f8:	test   %eax,%eax
    43fa:	jne    4403 <deflateSetDictionary+0x2a>
/home/rgesteve/projects/zlib-1.2.11/build/../deflate.c:387 (discriminator 1)
    43fc:	cmpq   $0x0,-0x30(%rbp)
    4401:	jne    440d <deflateSetDictionary+0x34>
/home/rgesteve/projects/zlib-1.2.11/build/../deflate.c:388
    4403:	mov    $0xfffffffe,%eax
    4408:	jmpq   472b <deflateSetDictionary+0x352>
/home/rgesteve/projects/zlib-1.2.11/build/../deflate.c:389
    440d:	mov    -0x28(%rbp),%rax
    4411:	mov    0x38(%rax),%rax
    4415:	mov    %rax,-0x10(%rbp)
/home/rgesteve/projects/zlib-1.2.11/build/../deflate.c:390
    4419:	mov    -0x10(%rbp),%rax
    441d:	mov    0x30(%rax),%eax
    4420:	mov    %eax,-0x18(%rbp)
/home/rgesteve/projects/zlib-1.2.11/build/../deflate.c:391
    4423:	cmpl   $0x2,-0x18(%rbp)
    4427:	je     4449 <deflateSetDictionary+0x70>
/home/rgesteve/projects/zlib-1.2.11/build/../deflate.c:391 (discriminator 1)
    4429:	cmpl   $0x1,-0x18(%rbp)
    442d:	jne    443b <deflateSetDictionary+0x62>
/home/rgesteve/projects/zlib-1.2.11/build/../deflate.c:391 (discriminator 2)
    442f:	mov    -0x10(%rbp),%rax
    4433:	mov    0x8(%rax),%eax
    4436:	cmp    $0x2a,%eax
    4439:	jne    4449 <deflateSetDictionary+0x70>
/home/rgesteve/projects/zlib-1.2.11/build/../deflate.c:391 (discriminator 4)
    443b:	mov    -0x10(%rbp),%rax
    443f:	mov    0xb4(%rax),%eax
    4445:	test   %eax,%eax
    4447:	je     4453 <deflateSetDictionary+0x7a>
/home/rgesteve/projects/zlib-1.2.11/build/../deflate.c:392
    4449:	mov    $0xfffffffe,%eax
    444e:	jmpq   472b <deflateSetDictionary+0x352>
/home/rgesteve/projects/zlib-1.2.11/build/../deflate.c:395
    4453:	cmpl   $0x1,-0x18(%rbp)
    4457:	jne    447e <deflateSetDictionary+0xa5>
/home/rgesteve/projects/zlib-1.2.11/build/../deflate.c:396
    4459:	mov    -0x28(%rbp),%rax
    445d:	mov    0x60(%rax),%rax
    4461:	mov    -0x34(%rbp),%edx
    4464:	mov    -0x30(%rbp),%rcx
    4468:	mov    %rcx,%rsi
    446b:	mov    %rax,%rdi
    446e:	callq  2240 <adler32@plt>
    4473:	mov    %rax,%rdx
    4476:	mov    -0x28(%rbp),%rax
    447a:	mov    %rdx,0x60(%rax)
/home/rgesteve/projects/zlib-1.2.11/build/../deflate.c:397
    447e:	mov    -0x10(%rbp),%rax
    4482:	movl   $0x0,0x30(%rax)
/home/rgesteve/projects/zlib-1.2.11/build/../deflate.c:400
    4489:	mov    -0x10(%rbp),%rax
    448d:	mov    0x50(%rax),%eax
    4490:	cmp    %eax,-0x34(%rbp)
    4493:	jb     4532 <deflateSetDictionary+0x159>
/home/rgesteve/projects/zlib-1.2.11/build/../deflate.c:401
    4499:	cmpl   $0x0,-0x18(%rbp)
    449d:	jne    4514 <deflateSetDictionary+0x13b>
/home/rgesteve/projects/zlib-1.2.11/build/../deflate.c:402
    449f:	mov    -0x10(%rbp),%rax
    44a3:	mov    0x78(%rax),%rdx
    44a7:	mov    -0x10(%rbp),%rax
    44ab:	mov    0x84(%rax),%eax
    44b1:	sub    $0x1,%eax
    44b4:	mov    %eax,%eax
    44b6:	add    %rax,%rax
    44b9:	add    %rdx,%rax
    44bc:	movw   $0x0,(%rax)
    44c1:	mov    -0x10(%rbp),%rax
    44c5:	mov    0x84(%rax),%eax
    44cb:	sub    $0x1,%eax
    44ce:	mov    %eax,%eax
    44d0:	lea    (%rax,%rax,1),%rdx
    44d4:	mov    -0x10(%rbp),%rax
    44d8:	mov    0x78(%rax),%rax
    44dc:	mov    $0x0,%esi
    44e1:	mov    %rax,%rdi
    44e4:	callq  2190 <memset@plt>
/home/rgesteve/projects/zlib-1.2.11/build/../deflate.c:403
    44e9:	mov    -0x10(%rbp),%rax
    44ed:	movl   $0x0,0xac(%rax)
/home/rgesteve/projects/zlib-1.2.11/build/../deflate.c:404
    44f7:	mov    -0x10(%rbp),%rax
    44fb:	movq   $0x0,0x98(%rax)
/home/rgesteve/projects/zlib-1.2.11/build/../deflate.c:405
    4506:	mov    -0x10(%rbp),%rax
    450a:	movl   $0x0,0x172c(%rax)
/home/rgesteve/projects/zlib-1.2.11/build/../deflate.c:407
    4514:	mov    -0x10(%rbp),%rax
    4518:	mov    0x50(%rax),%eax
    451b:	mov    -0x34(%rbp),%edx
    451e:	sub    %eax,%edx
    4520:	mov    %edx,%eax
    4522:	mov    %eax,%eax
    4524:	add    %rax,-0x30(%rbp)
/home/rgesteve/projects/zlib-1.2.11/build/../deflate.c:408
    4528:	mov    -0x10(%rbp),%rax
    452c:	mov    0x50(%rax),%eax
    452f:	mov    %eax,-0x34(%rbp)
/home/rgesteve/projects/zlib-1.2.11/build/../deflate.c:412
    4532:	mov    -0x28(%rbp),%rax
    4536:	mov    0x8(%rax),%eax
    4539:	mov    %eax,-0x14(%rbp)
/home/rgesteve/projects/zlib-1.2.11/build/../deflate.c:413
    453c:	mov    -0x28(%rbp),%rax
    4540:	mov    (%rax),%rax
    4543:	mov    %rax,-0x8(%rbp)
/home/rgesteve/projects/zlib-1.2.11/build/../deflate.c:414
    4547:	mov    -0x28(%rbp),%rax
    454b:	mov    -0x34(%rbp),%edx
    454e:	mov    %edx,0x8(%rax)
/home/rgesteve/projects/zlib-1.2.11/build/../deflate.c:415
    4551:	mov    -0x28(%rbp),%rax
    4555:	mov    -0x30(%rbp),%rdx
    4559:	mov    %rdx,(%rax)
/home/rgesteve/projects/zlib-1.2.11/build/../deflate.c:416
    455c:	mov    -0x10(%rbp),%rax
    4560:	mov    %rax,%rdi
    4563:	callq  6dd7 <fill_window>
/home/rgesteve/projects/zlib-1.2.11/build/../deflate.c:417
    4568:	jmpq   466b <deflateSetDictionary+0x292>
/home/rgesteve/projects/zlib-1.2.11/build/../deflate.c:418
    456d:	mov    -0x10(%rbp),%rax
    4571:	mov    0xac(%rax),%eax
    4577:	mov    %eax,-0x20(%rbp)
/home/rgesteve/projects/zlib-1.2.11/build/../deflate.c:419
    457a:	mov    -0x10(%rbp),%rax
    457e:	mov    0xb4(%rax),%eax
    4584:	sub    $0x2,%eax
    4587:	mov    %eax,-0x1c(%rbp)
/home/rgesteve/projects/zlib-1.2.11/build/../deflate.c:421 (discriminator 1)
    458a:	mov    -0x10(%rbp),%rax
    458e:	mov    0x80(%rax),%edx
    4594:	mov    -0x10(%rbp),%rax
    4598:	mov    0x90(%rax),%eax
    459e:	mov    %eax,%ecx
    45a0:	shl    %cl,%edx
    45a2:	mov    %edx,%ecx
    45a4:	mov    -0x10(%rbp),%rax
    45a8:	mov    0x60(%rax),%rax
    45ac:	mov    -0x20(%rbp),%edx
    45af:	add    $0x2,%edx
    45b2:	mov    %edx,%edx
    45b4:	add    %rdx,%rax
    45b7:	movzbl (%rax),%eax
    45ba:	movzbl %al,%eax
    45bd:	xor    %eax,%ecx
    45bf:	mov    %ecx,%edx
    45c1:	mov    -0x10(%rbp),%rax
    45c5:	mov    0x8c(%rax),%eax
    45cb:	and    %eax,%edx
    45cd:	mov    -0x10(%rbp),%rax
    45d1:	mov    %edx,0x80(%rax)
/home/rgesteve/projects/zlib-1.2.11/build/../deflate.c:423 (discriminator 1)
    45d7:	mov    -0x10(%rbp),%rax
    45db:	mov    0x78(%rax),%rdx
    45df:	mov    -0x10(%rbp),%rax
    45e3:	mov    0x80(%rax),%eax
    45e9:	mov    %eax,%eax
    45eb:	add    %rax,%rax
    45ee:	lea    (%rdx,%rax,1),%rcx
    45f2:	mov    -0x10(%rbp),%rax
    45f6:	mov    0x70(%rax),%rdx
    45fa:	mov    -0x10(%rbp),%rax
    45fe:	mov    0x58(%rax),%eax
    4601:	and    -0x20(%rbp),%eax
    4604:	mov    %eax,%eax
    4606:	add    %rax,%rax
    4609:	add    %rax,%rdx
    460c:	movzwl (%rcx),%eax
    460f:	mov    %ax,(%rdx)
/home/rgesteve/projects/zlib-1.2.11/build/../deflate.c:425 (discriminator 1)
    4612:	mov    -0x10(%rbp),%rax
    4616:	mov    0x78(%rax),%rdx
    461a:	mov    -0x10(%rbp),%rax
    461e:	mov    0x80(%rax),%eax
    4624:	mov    %eax,%eax
    4626:	add    %rax,%rax
    4629:	add    %rdx,%rax
    462c:	mov    -0x20(%rbp),%edx
    462f:	mov    %dx,(%rax)
/home/rgesteve/projects/zlib-1.2.11/build/../deflate.c:426 (discriminator 1)
    4632:	addl   $0x1,-0x20(%rbp)
/home/rgesteve/projects/zlib-1.2.11/build/../deflate.c:427 (discriminator 1)
    4636:	subl   $0x1,-0x1c(%rbp)
    463a:	cmpl   $0x0,-0x1c(%rbp)
    463e:	jne    458a <deflateSetDictionary+0x1b1>
/home/rgesteve/projects/zlib-1.2.11/build/../deflate.c:428
    4644:	mov    -0x10(%rbp),%rax
    4648:	mov    -0x20(%rbp),%edx
    464b:	mov    %edx,0xac(%rax)
/home/rgesteve/projects/zlib-1.2.11/build/../deflate.c:429
    4651:	mov    -0x10(%rbp),%rax
    4655:	movl   $0x2,0xb4(%rax)
/home/rgesteve/projects/zlib-1.2.11/build/../deflate.c:430
    465f:	mov    -0x10(%rbp),%rax
    4663:	mov    %rax,%rdi
    4666:	callq  6dd7 <fill_window>
/home/rgesteve/projects/zlib-1.2.11/build/../deflate.c:417
    466b:	mov    -0x10(%rbp),%rax
    466f:	mov    0xb4(%rax),%eax
    4675:	cmp    $0x2,%eax
    4678:	ja     456d <deflateSetDictionary+0x194>
/home/rgesteve/projects/zlib-1.2.11/build/../deflate.c:432
    467e:	mov    -0x10(%rbp),%rax
    4682:	mov    0xac(%rax),%edx
    4688:	mov    -0x10(%rbp),%rax
    468c:	mov    0xb4(%rax),%eax
    4692:	add    %eax,%edx
    4694:	mov    -0x10(%rbp),%rax
    4698:	mov    %edx,0xac(%rax)
/home/rgesteve/projects/zlib-1.2.11/build/../deflate.c:433
    469e:	mov    -0x10(%rbp),%rax
    46a2:	mov    0xac(%rax),%eax
    46a8:	mov    %eax,%edx
    46aa:	mov    -0x10(%rbp),%rax
    46ae:	mov    %rdx,0x98(%rax)
/home/rgesteve/projects/zlib-1.2.11/build/../deflate.c:434
    46b5:	mov    -0x10(%rbp),%rax
    46b9:	mov    0xb4(%rax),%edx
    46bf:	mov    -0x10(%rbp),%rax
    46c3:	mov    %edx,0x172c(%rax)
/home/rgesteve/projects/zlib-1.2.11/build/../deflate.c:435
    46c9:	mov    -0x10(%rbp),%rax
    46cd:	movl   $0x0,0xb4(%rax)
/home/rgesteve/projects/zlib-1.2.11/build/../deflate.c:436
    46d7:	mov    -0x10(%rbp),%rax
    46db:	movl   $0x2,0xb8(%rax)
    46e5:	mov    -0x10(%rbp),%rax
    46e9:	mov    0xb8(%rax),%edx
    46ef:	mov    -0x10(%rbp),%rax
    46f3:	mov    %edx,0xa0(%rax)
/home/rgesteve/projects/zlib-1.2.11/build/../deflate.c:437
    46f9:	mov    -0x10(%rbp),%rax
    46fd:	movl   $0x0,0xa8(%rax)
/home/rgesteve/projects/zlib-1.2.11/build/../deflate.c:438
    4707:	mov    -0x28(%rbp),%rax
    470b:	mov    -0x8(%rbp),%rdx
    470f:	mov    %rdx,(%rax)
/home/rgesteve/projects/zlib-1.2.11/build/../deflate.c:439
    4712:	mov    -0x28(%rbp),%rax
    4716:	mov    -0x14(%rbp),%edx
    4719:	mov    %edx,0x8(%rax)
/home/rgesteve/projects/zlib-1.2.11/build/../deflate.c:440
    471c:	mov    -0x10(%rbp),%rax
    4720:	mov    -0x18(%rbp),%edx
    4723:	mov    %edx,0x30(%rax)
/home/rgesteve/projects/zlib-1.2.11/build/../deflate.c:441
    4726:	mov    $0x0,%eax
/home/rgesteve/projects/zlib-1.2.11/build/../deflate.c:442
    472b:	leaveq 
    472c:	retq   

000000000000472d <deflateGetDictionary>:
deflateGetDictionary():
/home/rgesteve/projects/zlib-1.2.11/build/../deflate.c:449
    472d:	push   %rbp
    472e:	mov    %rsp,%rbp
    4731:	sub    $0x30,%rsp
    4735:	mov    %rdi,-0x18(%rbp)
    4739:	mov    %rsi,-0x20(%rbp)
    473d:	mov    %rdx,-0x28(%rbp)
/home/rgesteve/projects/zlib-1.2.11/build/../deflate.c:453
    4741:	mov    -0x18(%rbp),%rax
    4745:	mov    %rax,%rdi
    4748:	callq  4316 <deflateStateCheck>
    474d:	test   %eax,%eax
    474f:	je     475b <deflateGetDictionary+0x2e>
/home/rgesteve/projects/zlib-1.2.11/build/../deflate.c:454
    4751:	mov    $0xfffffffe,%eax
    4756:	jmpq   47f9 <deflateGetDictionary+0xcc>
/home/rgesteve/projects/zlib-1.2.11/build/../deflate.c:455
    475b:	mov    -0x18(%rbp),%rax
    475f:	mov    0x38(%rax),%rax
    4763:	mov    %rax,-0x8(%rbp)
/home/rgesteve/projects/zlib-1.2.11/build/../deflate.c:456
    4767:	mov    -0x8(%rbp),%rax
    476b:	mov    0xac(%rax),%edx
    4771:	mov    -0x8(%rbp),%rax
    4775:	mov    0xb4(%rax),%eax
    477b:	add    %edx,%eax
    477d:	mov    %eax,-0xc(%rbp)
/home/rgesteve/projects/zlib-1.2.11/build/../deflate.c:457
    4780:	mov    -0x8(%rbp),%rax
    4784:	mov    0x50(%rax),%eax
    4787:	cmp    %eax,-0xc(%rbp)
    478a:	jbe    4796 <deflateGetDictionary+0x69>
/home/rgesteve/projects/zlib-1.2.11/build/../deflate.c:458
    478c:	mov    -0x8(%rbp),%rax
    4790:	mov    0x50(%rax),%eax
    4793:	mov    %eax,-0xc(%rbp)
/home/rgesteve/projects/zlib-1.2.11/build/../deflate.c:459
    4796:	cmpq   $0x0,-0x20(%rbp)
    479b:	je     47e4 <deflateGetDictionary+0xb7>
/home/rgesteve/projects/zlib-1.2.11/build/../deflate.c:459 (discriminator 1)
    479d:	cmpl   $0x0,-0xc(%rbp)
    47a1:	je     47e4 <deflateGetDictionary+0xb7>
/home/rgesteve/projects/zlib-1.2.11/build/../deflate.c:460
    47a3:	mov    -0xc(%rbp),%edx
    47a6:	mov    -0x8(%rbp),%rax
    47aa:	mov    0x60(%rax),%rcx
    47ae:	mov    -0x8(%rbp),%rax
    47b2:	mov    0xac(%rax),%eax
    47b8:	mov    %eax,%esi
    47ba:	mov    -0x8(%rbp),%rax
    47be:	mov    0xb4(%rax),%eax
    47c4:	mov    %eax,%eax
    47c6:	add    %rax,%rsi
    47c9:	mov    -0xc(%rbp),%eax
    47cc:	sub    %rax,%rsi
    47cf:	mov    %rsi,%rax
    47d2:	add    %rax,%rcx
    47d5:	mov    -0x20(%rbp),%rax
    47d9:	mov    %rcx,%rsi
    47dc:	mov    %rax,%rdi
    47df:	callq  2210 <memcpy@plt>
/home/rgesteve/projects/zlib-1.2.11/build/../deflate.c:461
    47e4:	cmpq   $0x0,-0x28(%rbp)
    47e9:	je     47f4 <deflateGetDictionary+0xc7>
/home/rgesteve/projects/zlib-1.2.11/build/../deflate.c:462
    47eb:	mov    -0x28(%rbp),%rax
    47ef:	mov    -0xc(%rbp),%edx
    47f2:	mov    %edx,(%rax)
/home/rgesteve/projects/zlib-1.2.11/build/../deflate.c:463
    47f4:	mov    $0x0,%eax
/home/rgesteve/projects/zlib-1.2.11/build/../deflate.c:464
    47f9:	leaveq 
    47fa:	retq   

00000000000047fb <deflateResetKeep>:
deflateResetKeep():
/home/rgesteve/projects/zlib-1.2.11/build/../deflate.c:469
    47fb:	push   %rbp
    47fc:	mov    %rsp,%rbp
    47ff:	sub    $0x20,%rsp
    4803:	mov    %rdi,-0x18(%rbp)
/home/rgesteve/projects/zlib-1.2.11/build/../deflate.c:472
    4807:	mov    -0x18(%rbp),%rax
    480b:	mov    %rax,%rdi
    480e:	callq  4316 <deflateStateCheck>
    4813:	test   %eax,%eax
    4815:	je     4821 <deflateResetKeep+0x26>
/home/rgesteve/projects/zlib-1.2.11/build/../deflate.c:473
    4817:	mov    $0xfffffffe,%eax
    481c:	jmpq   492a <deflateResetKeep+0x12f>
/home/rgesteve/projects/zlib-1.2.11/build/../deflate.c:476
    4821:	mov    -0x18(%rbp),%rax
    4825:	movq   $0x0,0x28(%rax)
    482d:	mov    -0x18(%rbp),%rax
    4831:	mov    0x28(%rax),%rdx
    4835:	mov    -0x18(%rbp),%rax
    4839:	mov    %rdx,0x10(%rax)
/home/rgesteve/projects/zlib-1.2.11/build/../deflate.c:477
    483d:	mov    -0x18(%rbp),%rax
    4841:	movq   $0x0,0x30(%rax)
/home/rgesteve/projects/zlib-1.2.11/build/../deflate.c:478
    4849:	mov    -0x18(%rbp),%rax
    484d:	movl   $0x2,0x58(%rax)
/home/rgesteve/projects/zlib-1.2.11/build/../deflate.c:480
    4854:	mov    -0x18(%rbp),%rax
    4858:	mov    0x38(%rax),%rax
    485c:	mov    %rax,-0x8(%rbp)
/home/rgesteve/projects/zlib-1.2.11/build/../deflate.c:481
    4860:	mov    -0x8(%rbp),%rax
    4864:	movq   $0x0,0x28(%rax)
/home/rgesteve/projects/zlib-1.2.11/build/../deflate.c:482
    486c:	mov    -0x8(%rbp),%rax
    4870:	mov    0x10(%rax),%rdx
    4874:	mov    -0x8(%rbp),%rax
    4878:	mov    %rdx,0x20(%rax)
/home/rgesteve/projects/zlib-1.2.11/build/../deflate.c:484
    487c:	mov    -0x8(%rbp),%rax
    4880:	mov    0x30(%rax),%eax
    4883:	test   %eax,%eax
    4885:	jns    4899 <deflateResetKeep+0x9e>
/home/rgesteve/projects/zlib-1.2.11/build/../deflate.c:485
    4887:	mov    -0x8(%rbp),%rax
    488b:	mov    0x30(%rax),%eax
    488e:	neg    %eax
    4890:	mov    %eax,%edx
    4892:	mov    -0x8(%rbp),%rax
    4896:	mov    %edx,0x30(%rax)
/home/rgesteve/projects/zlib-1.2.11/build/../deflate.c:489
    4899:	mov    -0x8(%rbp),%rax
    489d:	mov    0x30(%rax),%eax
    48a0:	cmp    $0x2,%eax
    48a3:	je     48be <deflateResetKeep+0xc3>
/home/rgesteve/projects/zlib-1.2.11/build/../deflate.c:491
    48a5:	mov    -0x8(%rbp),%rax
    48a9:	mov    0x30(%rax),%eax
    48ac:	test   %eax,%eax
    48ae:	je     48b7 <deflateResetKeep+0xbc>
/home/rgesteve/projects/zlib-1.2.11/build/../deflate.c:491 (discriminator 1)
    48b0:	mov    $0x2a,%eax
    48b5:	jmp    48c3 <deflateResetKeep+0xc8>
/home/rgesteve/projects/zlib-1.2.11/build/../deflate.c:491 (discriminator 2)
    48b7:	mov    $0x71,%eax
    48bc:	jmp    48c3 <deflateResetKeep+0xc8>
/home/rgesteve/projects/zlib-1.2.11/build/../deflate.c:489 (discriminator 1)
    48be:	mov    $0x39,%eax
/home/rgesteve/projects/zlib-1.2.11/build/../deflate.c:487
    48c3:	mov    -0x8(%rbp),%rdx
    48c7:	mov    %eax,0x8(%rdx)
/home/rgesteve/projects/zlib-1.2.11/build/../deflate.c:494
    48ca:	mov    -0x8(%rbp),%rax
    48ce:	mov    0x30(%rax),%eax
    48d1:	cmp    $0x2,%eax
    48d4:	jne    48ef <deflateResetKeep+0xf4>
/home/rgesteve/projects/zlib-1.2.11/build/../deflate.c:494 (discriminator 1)
    48d6:	mov    $0x0,%edx
    48db:	mov    $0x0,%esi
    48e0:	mov    $0x0,%edi
    48e5:	callq  2110 <crc32@plt>
    48ea:	mov    %rax,%rdx
    48ed:	jmp    4906 <deflateResetKeep+0x10b>
/home/rgesteve/projects/zlib-1.2.11/build/../deflate.c:494 (discriminator 2)
    48ef:	mov    $0x0,%edx
    48f4:	mov    $0x0,%esi
    48f9:	mov    $0x0,%edi
    48fe:	callq  2240 <adler32@plt>
    4903:	mov    %rax,%rdx
/home/rgesteve/projects/zlib-1.2.11/build/../deflate.c:492
    4906:	mov    -0x18(%rbp),%rax
    490a:	mov    %rdx,0x60(%rax)
/home/rgesteve/projects/zlib-1.2.11/build/../deflate.c:497
    490e:	mov    -0x8(%rbp),%rax
    4912:	movl   $0x0,0x4c(%rax)
/home/rgesteve/projects/zlib-1.2.11/build/../deflate.c:499
    4919:	mov    -0x8(%rbp),%rax
    491d:	mov    %rax,%rdi
    4920:	callq  1263b <_tr_init>
/home/rgesteve/projects/zlib-1.2.11/build/../deflate.c:501
    4925:	mov    $0x0,%eax
/home/rgesteve/projects/zlib-1.2.11/build/../deflate.c:502
    492a:	leaveq 
    492b:	retq   

000000000000492c <deflateReset>:
deflateReset():
/home/rgesteve/projects/zlib-1.2.11/build/../deflate.c:507
    492c:	push   %rbp
    492d:	mov    %rsp,%rbp
    4930:	sub    $0x20,%rsp
    4934:	mov    %rdi,-0x18(%rbp)
/home/rgesteve/projects/zlib-1.2.11/build/../deflate.c:510
    4938:	mov    -0x18(%rbp),%rax
    493c:	mov    %rax,%rdi
    493f:	callq  2300 <deflateResetKeep@plt>
    4944:	mov    %eax,-0x4(%rbp)
/home/rgesteve/projects/zlib-1.2.11/build/../deflate.c:511
    4947:	cmpl   $0x0,-0x4(%rbp)
    494b:	jne    495d <deflateReset+0x31>
/home/rgesteve/projects/zlib-1.2.11/build/../deflate.c:512
    494d:	mov    -0x18(%rbp),%rax
    4951:	mov    0x38(%rax),%rax
    4955:	mov    %rax,%rdi
    4958:	callq  6956 <lm_init>
/home/rgesteve/projects/zlib-1.2.11/build/../deflate.c:513
    495d:	mov    -0x4(%rbp),%eax
/home/rgesteve/projects/zlib-1.2.11/build/../deflate.c:514
    4960:	leaveq 
    4961:	retq   

0000000000004962 <deflateSetHeader>:
deflateSetHeader():
/home/rgesteve/projects/zlib-1.2.11/build/../deflate.c:520
    4962:	push   %rbp
    4963:	mov    %rsp,%rbp
    4966:	sub    $0x10,%rsp
    496a:	mov    %rdi,-0x8(%rbp)
    496e:	mov    %rsi,-0x10(%rbp)
/home/rgesteve/projects/zlib-1.2.11/build/../deflate.c:521
    4972:	mov    -0x8(%rbp),%rax
    4976:	mov    %rax,%rdi
    4979:	callq  4316 <deflateStateCheck>
    497e:	test   %eax,%eax
    4980:	jne    4992 <deflateSetHeader+0x30>
/home/rgesteve/projects/zlib-1.2.11/build/../deflate.c:521 (discriminator 1)
    4982:	mov    -0x8(%rbp),%rax
    4986:	mov    0x38(%rax),%rax
    498a:	mov    0x30(%rax),%eax
    498d:	cmp    $0x2,%eax
    4990:	je     4999 <deflateSetHeader+0x37>
/home/rgesteve/projects/zlib-1.2.11/build/../deflate.c:522
    4992:	mov    $0xfffffffe,%eax
    4997:	jmp    49ae <deflateSetHeader+0x4c>
/home/rgesteve/projects/zlib-1.2.11/build/../deflate.c:523
    4999:	mov    -0x8(%rbp),%rax
    499d:	mov    0x38(%rax),%rax
    49a1:	mov    -0x10(%rbp),%rdx
    49a5:	mov    %rdx,0x38(%rax)
/home/rgesteve/projects/zlib-1.2.11/build/../deflate.c:524
    49a9:	mov    $0x0,%eax
/home/rgesteve/projects/zlib-1.2.11/build/../deflate.c:525
    49ae:	leaveq 
    49af:	retq   

00000000000049b0 <deflatePending>:
deflatePending():
/home/rgesteve/projects/zlib-1.2.11/build/../deflate.c:532
    49b0:	push   %rbp
    49b1:	mov    %rsp,%rbp
    49b4:	sub    $0x18,%rsp
    49b8:	mov    %rdi,-0x8(%rbp)
    49bc:	mov    %rsi,-0x10(%rbp)
    49c0:	mov    %rdx,-0x18(%rbp)
/home/rgesteve/projects/zlib-1.2.11/build/../deflate.c:533
    49c4:	mov    -0x8(%rbp),%rax
    49c8:	mov    %rax,%rdi
    49cb:	callq  4316 <deflateStateCheck>
    49d0:	test   %eax,%eax
    49d2:	je     49db <deflatePending+0x2b>
/home/rgesteve/projects/zlib-1.2.11/build/../deflate.c:533 (discriminator 1)
    49d4:	mov    $0xfffffffe,%eax
    49d9:	jmp    4a16 <deflatePending+0x66>
/home/rgesteve/projects/zlib-1.2.11/build/../deflate.c:534
    49db:	cmpq   $0x0,-0x10(%rbp)
    49e0:	je     49f6 <deflatePending+0x46>
/home/rgesteve/projects/zlib-1.2.11/build/../deflate.c:535
    49e2:	mov    -0x8(%rbp),%rax
    49e6:	mov    0x38(%rax),%rax
    49ea:	mov    0x28(%rax),%rax
    49ee:	mov    %eax,%edx
    49f0:	mov    -0x10(%rbp),%rax
    49f4:	mov    %edx,(%rax)
/home/rgesteve/projects/zlib-1.2.11/build/../deflate.c:536
    49f6:	cmpq   $0x0,-0x18(%rbp)
    49fb:	je     4a11 <deflatePending+0x61>
/home/rgesteve/projects/zlib-1.2.11/build/../deflate.c:537
    49fd:	mov    -0x8(%rbp),%rax
    4a01:	mov    0x38(%rax),%rax
    4a05:	mov    0x1734(%rax),%edx
    4a0b:	mov    -0x18(%rbp),%rax
    4a0f:	mov    %edx,(%rax)
/home/rgesteve/projects/zlib-1.2.11/build/../deflate.c:538
    4a11:	mov    $0x0,%eax
/home/rgesteve/projects/zlib-1.2.11/build/../deflate.c:539
    4a16:	leaveq 
    4a17:	retq   

0000000000004a18 <deflatePrime>:
deflatePrime():
/home/rgesteve/projects/zlib-1.2.11/build/../deflate.c:546
    4a18:	push   %rbp
    4a19:	mov    %rsp,%rbp
    4a1c:	sub    $0x20,%rsp
    4a20:	mov    %rdi,-0x18(%rbp)
    4a24:	mov    %esi,-0x1c(%rbp)
    4a27:	mov    %edx,-0x20(%rbp)
/home/rgesteve/projects/zlib-1.2.11/build/../deflate.c:550
    4a2a:	mov    -0x18(%rbp),%rax
    4a2e:	mov    %rax,%rdi
    4a31:	callq  4316 <deflateStateCheck>
    4a36:	test   %eax,%eax
    4a38:	je     4a44 <deflatePrime+0x2c>
/home/rgesteve/projects/zlib-1.2.11/build/../deflate.c:550 (discriminator 1)
    4a3a:	mov    $0xfffffffe,%eax
    4a3f:	jmpq   4b1a <deflatePrime+0x102>
/home/rgesteve/projects/zlib-1.2.11/build/../deflate.c:551
    4a44:	mov    -0x18(%rbp),%rax
    4a48:	mov    0x38(%rax),%rax
    4a4c:	mov    %rax,-0x8(%rbp)
/home/rgesteve/projects/zlib-1.2.11/build/../deflate.c:552
    4a50:	mov    -0x8(%rbp),%rax
    4a54:	mov    0x1710(%rax),%rdx
    4a5b:	mov    -0x8(%rbp),%rax
    4a5f:	mov    0x20(%rax),%rax
    4a63:	add    $0x2,%rax
    4a67:	cmp    %rax,%rdx
    4a6a:	jae    4a76 <deflatePrime+0x5e>
/home/rgesteve/projects/zlib-1.2.11/build/../deflate.c:553
    4a6c:	mov    $0xfffffffb,%eax
    4a71:	jmpq   4b1a <deflatePrime+0x102>
/home/rgesteve/projects/zlib-1.2.11/build/../deflate.c:555
    4a76:	mov    -0x8(%rbp),%rax
    4a7a:	mov    0x1734(%rax),%eax
    4a80:	mov    $0x10,%edx
    4a85:	sub    %eax,%edx
    4a87:	mov    %edx,%eax
    4a89:	mov    %eax,-0xc(%rbp)
/home/rgesteve/projects/zlib-1.2.11/build/../deflate.c:556
    4a8c:	mov    -0xc(%rbp),%eax
    4a8f:	cmp    -0x1c(%rbp),%eax
    4a92:	jle    4a9a <deflatePrime+0x82>
/home/rgesteve/projects/zlib-1.2.11/build/../deflate.c:557
    4a94:	mov    -0x1c(%rbp),%eax
    4a97:	mov    %eax,-0xc(%rbp)
/home/rgesteve/projects/zlib-1.2.11/build/../deflate.c:558
    4a9a:	mov    -0x8(%rbp),%rax
    4a9e:	movzwl 0x1730(%rax),%edx
    4aa5:	mov    -0xc(%rbp),%eax
    4aa8:	mov    $0x1,%esi
    4aad:	mov    %eax,%ecx
    4aaf:	shl    %cl,%esi
    4ab1:	mov    %esi,%eax
    4ab3:	sub    $0x1,%eax
    4ab6:	and    -0x20(%rbp),%eax
    4ab9:	mov    %eax,%esi
    4abb:	mov    -0x8(%rbp),%rax
    4abf:	mov    0x1734(%rax),%eax
    4ac5:	mov    %eax,%ecx
    4ac7:	shl    %cl,%esi
    4ac9:	mov    %esi,%eax
    4acb:	or     %eax,%edx
    4acd:	mov    -0x8(%rbp),%rax
    4ad1:	mov    %dx,0x1730(%rax)
/home/rgesteve/projects/zlib-1.2.11/build/../deflate.c:559
    4ad8:	mov    -0x8(%rbp),%rax
    4adc:	mov    0x1734(%rax),%edx
    4ae2:	mov    -0xc(%rbp),%eax
    4ae5:	add    %eax,%edx
    4ae7:	mov    -0x8(%rbp),%rax
    4aeb:	mov    %edx,0x1734(%rax)
/home/rgesteve/projects/zlib-1.2.11/build/../deflate.c:560
    4af1:	mov    -0x8(%rbp),%rax
    4af5:	mov    %rax,%rdi
    4af8:	callq  14be6 <_tr_flush_bits>
/home/rgesteve/projects/zlib-1.2.11/build/../deflate.c:561
    4afd:	mov    -0xc(%rbp),%eax
    4b00:	mov    %eax,%ecx
    4b02:	sarl   %cl,-0x20(%rbp)
/home/rgesteve/projects/zlib-1.2.11/build/../deflate.c:562
    4b05:	mov    -0xc(%rbp),%eax
    4b08:	sub    %eax,-0x1c(%rbp)
/home/rgesteve/projects/zlib-1.2.11/build/../deflate.c:563
    4b0b:	cmpl   $0x0,-0x1c(%rbp)
    4b0f:	jne    4a76 <deflatePrime+0x5e>
/home/rgesteve/projects/zlib-1.2.11/build/../deflate.c:564
    4b15:	mov    $0x0,%eax
/home/rgesteve/projects/zlib-1.2.11/build/../deflate.c:565
    4b1a:	leaveq 
    4b1b:	retq   

0000000000004b1c <deflateParams>:
deflateParams():
/home/rgesteve/projects/zlib-1.2.11/build/../deflate.c:572
    4b1c:	push   %rbp
    4b1d:	mov    %rsp,%rbp
    4b20:	sub    $0x30,%rsp
    4b24:	mov    %rdi,-0x28(%rbp)
    4b28:	mov    %esi,-0x2c(%rbp)
    4b2b:	mov    %edx,-0x30(%rbp)
/home/rgesteve/projects/zlib-1.2.11/build/../deflate.c:576
    4b2e:	mov    -0x28(%rbp),%rax
    4b32:	mov    %rax,%rdi
    4b35:	callq  4316 <deflateStateCheck>
    4b3a:	test   %eax,%eax
    4b3c:	je     4b48 <deflateParams+0x2c>
/home/rgesteve/projects/zlib-1.2.11/build/../deflate.c:576 (discriminator 1)
    4b3e:	mov    $0xfffffffe,%eax
    4b43:	jmpq   4d6f <deflateParams+0x253>
/home/rgesteve/projects/zlib-1.2.11/build/../deflate.c:577
    4b48:	mov    -0x28(%rbp),%rax
    4b4c:	mov    0x38(%rax),%rax
    4b50:	mov    %rax,-0x10(%rbp)
/home/rgesteve/projects/zlib-1.2.11/build/../deflate.c:582
    4b54:	cmpl   $0xffffffff,-0x2c(%rbp)
    4b58:	jne    4b61 <deflateParams+0x45>
/home/rgesteve/projects/zlib-1.2.11/build/../deflate.c:582 (discriminator 1)
    4b5a:	movl   $0x6,-0x2c(%rbp)
/home/rgesteve/projects/zlib-1.2.11/build/../deflate.c:584
    4b61:	cmpl   $0x0,-0x2c(%rbp)
    4b65:	js     4b79 <deflateParams+0x5d>
/home/rgesteve/projects/zlib-1.2.11/build/../deflate.c:584 (discriminator 1)
    4b67:	cmpl   $0x9,-0x2c(%rbp)
    4b6b:	jg     4b79 <deflateParams+0x5d>
/home/rgesteve/projects/zlib-1.2.11/build/../deflate.c:584 (discriminator 2)
    4b6d:	cmpl   $0x0,-0x30(%rbp)
    4b71:	js     4b79 <deflateParams+0x5d>
/home/rgesteve/projects/zlib-1.2.11/build/../deflate.c:584 (discriminator 3)
    4b73:	cmpl   $0x4,-0x30(%rbp)
    4b77:	jle    4b83 <deflateParams+0x67>
/home/rgesteve/projects/zlib-1.2.11/build/../deflate.c:585
    4b79:	mov    $0xfffffffe,%eax
    4b7e:	jmpq   4d6f <deflateParams+0x253>
/home/rgesteve/projects/zlib-1.2.11/build/../deflate.c:587
    4b83:	mov    -0x10(%rbp),%rax
    4b87:	mov    0xc4(%rax),%eax
    4b8d:	cltq   
    4b8f:	shl    $0x4,%rax
    4b93:	mov    %rax,%rdx
    4b96:	lea    0x21810b(%rip),%rax        # 21cca8 <configuration_table+0x8>
    4b9d:	mov    (%rdx,%rax,1),%rax
    4ba1:	mov    %rax,-0x8(%rbp)
/home/rgesteve/projects/zlib-1.2.11/build/../deflate.c:589
    4ba5:	mov    -0x10(%rbp),%rax
    4ba9:	mov    0xc8(%rax),%eax
    4baf:	cmp    %eax,-0x30(%rbp)
    4bb2:	jne    4bd1 <deflateParams+0xb5>
/home/rgesteve/projects/zlib-1.2.11/build/../deflate.c:589 (discriminator 2)
    4bb4:	mov    -0x2c(%rbp),%eax
    4bb7:	cltq   
    4bb9:	shl    $0x4,%rax
    4bbd:	mov    %rax,%rdx
    4bc0:	lea    0x2180e1(%rip),%rax        # 21cca8 <configuration_table+0x8>
    4bc7:	mov    (%rdx,%rax,1),%rax
    4bcb:	cmp    %rax,-0x8(%rbp)
    4bcf:	je     4c18 <deflateParams+0xfc>
/home/rgesteve/projects/zlib-1.2.11/build/../deflate.c:590 (discriminator 3)
    4bd1:	mov    -0x10(%rbp),%rax
    4bd5:	mov    0x1738(%rax),%rax
/home/rgesteve/projects/zlib-1.2.11/build/../deflate.c:589 (discriminator 3)
    4bdc:	test   %rax,%rax
    4bdf:	je     4c18 <deflateParams+0xfc>
/home/rgesteve/projects/zlib-1.2.11/build/../deflate.c:592
    4be1:	mov    -0x28(%rbp),%rax
    4be5:	mov    $0x5,%esi
    4bea:	mov    %rax,%rdi
    4bed:	callq  2180 <deflate@plt>
    4bf2:	mov    %eax,-0x14(%rbp)
/home/rgesteve/projects/zlib-1.2.11/build/../deflate.c:593
    4bf5:	cmpl   $0xfffffffe,-0x14(%rbp)
    4bf9:	jne    4c03 <deflateParams+0xe7>
/home/rgesteve/projects/zlib-1.2.11/build/../deflate.c:594
    4bfb:	mov    -0x14(%rbp),%eax
    4bfe:	jmpq   4d6f <deflateParams+0x253>
/home/rgesteve/projects/zlib-1.2.11/build/../deflate.c:595
    4c03:	mov    -0x28(%rbp),%rax
    4c07:	mov    0x20(%rax),%eax
    4c0a:	test   %eax,%eax
    4c0c:	jne    4c18 <deflateParams+0xfc>
/home/rgesteve/projects/zlib-1.2.11/build/../deflate.c:596
    4c0e:	mov    $0xfffffffb,%eax
    4c13:	jmpq   4d6f <deflateParams+0x253>
/home/rgesteve/projects/zlib-1.2.11/build/../deflate.c:598
    4c18:	mov    -0x10(%rbp),%rax
    4c1c:	mov    0xc4(%rax),%eax
    4c22:	cmp    %eax,-0x2c(%rbp)
    4c25:	je     4d5d <deflateParams+0x241>
/home/rgesteve/projects/zlib-1.2.11/build/../deflate.c:599
    4c2b:	mov    -0x10(%rbp),%rax
    4c2f:	mov    0xc4(%rax),%eax
    4c35:	test   %eax,%eax
    4c37:	jne    4cc0 <deflateParams+0x1a4>
/home/rgesteve/projects/zlib-1.2.11/build/../deflate.c:599 (discriminator 1)
    4c3d:	mov    -0x10(%rbp),%rax
    4c41:	mov    0x1728(%rax),%eax
    4c47:	test   %eax,%eax
    4c49:	je     4cc0 <deflateParams+0x1a4>
/home/rgesteve/projects/zlib-1.2.11/build/../deflate.c:600
    4c4b:	mov    -0x10(%rbp),%rax
    4c4f:	mov    0x1728(%rax),%eax
    4c55:	cmp    $0x1,%eax
    4c58:	jne    4c68 <deflateParams+0x14c>
/home/rgesteve/projects/zlib-1.2.11/build/../deflate.c:601
    4c5a:	mov    -0x10(%rbp),%rax
    4c5e:	mov    %rax,%rdi
    4c61:	callq  3dd9 <slide_hash>
    4c66:	jmp    4c8a <deflateParams+0x16e>
/home/rgesteve/projects/zlib-1.2.11/build/../deflate.c:603
    4c68:	mov    -0x10(%rbp),%rax
    4c6c:	mov    0x78(%rax),%rdx
    4c70:	mov    -0x10(%rbp),%rax
    4c74:	mov    0x84(%rax),%eax
    4c7a:	sub    $0x1,%eax
    4c7d:	mov    %eax,%eax
    4c7f:	add    %rax,%rax
    4c82:	add    %rdx,%rax
    4c85:	movw   $0x0,(%rax)
/home/rgesteve/projects/zlib-1.2.11/build/../deflate.c:603 (discriminator 1)
    4c8a:	mov    -0x10(%rbp),%rax
    4c8e:	mov    0x84(%rax),%eax
    4c94:	sub    $0x1,%eax
    4c97:	mov    %eax,%eax
    4c99:	lea    (%rax,%rax,1),%rdx
    4c9d:	mov    -0x10(%rbp),%rax
    4ca1:	mov    0x78(%rax),%rax
    4ca5:	mov    $0x0,%esi
    4caa:	mov    %rax,%rdi
    4cad:	callq  2190 <memset@plt>
/home/rgesteve/projects/zlib-1.2.11/build/../deflate.c:604 (discriminator 1)
    4cb2:	mov    -0x10(%rbp),%rax
    4cb6:	movl   $0x0,0x1728(%rax)
/home/rgesteve/projects/zlib-1.2.11/build/../deflate.c:606
    4cc0:	mov    -0x10(%rbp),%rax
    4cc4:	mov    -0x2c(%rbp),%edx
    4cc7:	mov    %edx,0xc4(%rax)
/home/rgesteve/projects/zlib-1.2.11/build/../deflate.c:607
    4ccd:	mov    -0x2c(%rbp),%eax
    4cd0:	cltq   
    4cd2:	shl    $0x4,%rax
    4cd6:	mov    %rax,%rdx
    4cd9:	lea    0x217fc2(%rip),%rax        # 21cca2 <configuration_table+0x2>
    4ce0:	movzwl (%rdx,%rax,1),%eax
    4ce4:	movzwl %ax,%edx
    4ce7:	mov    -0x10(%rbp),%rax
    4ceb:	mov    %edx,0xc0(%rax)
/home/rgesteve/projects/zlib-1.2.11/build/../deflate.c:608
    4cf1:	mov    -0x2c(%rbp),%eax
    4cf4:	cltq   
    4cf6:	shl    $0x4,%rax
    4cfa:	mov    %rax,%rdx
    4cfd:	lea    0x217f9c(%rip),%rax        # 21cca0 <configuration_table>
    4d04:	movzwl (%rdx,%rax,1),%eax
    4d08:	movzwl %ax,%edx
    4d0b:	mov    -0x10(%rbp),%rax
    4d0f:	mov    %edx,0xcc(%rax)
/home/rgesteve/projects/zlib-1.2.11/build/../deflate.c:609
    4d15:	mov    -0x2c(%rbp),%eax
    4d18:	cltq   
    4d1a:	shl    $0x4,%rax
    4d1e:	mov    %rax,%rdx
    4d21:	lea    0x217f7c(%rip),%rax        # 21cca4 <configuration_table+0x4>
    4d28:	movzwl (%rdx,%rax,1),%eax
    4d2c:	movzwl %ax,%edx
    4d2f:	mov    -0x10(%rbp),%rax
    4d33:	mov    %edx,0xd0(%rax)
/home/rgesteve/projects/zlib-1.2.11/build/../deflate.c:610
    4d39:	mov    -0x2c(%rbp),%eax
    4d3c:	cltq   
    4d3e:	shl    $0x4,%rax
    4d42:	mov    %rax,%rdx
    4d45:	lea    0x217f5a(%rip),%rax        # 21cca6 <configuration_table+0x6>
    4d4c:	movzwl (%rdx,%rax,1),%eax
    4d50:	movzwl %ax,%edx
    4d53:	mov    -0x10(%rbp),%rax
    4d57:	mov    %edx,0xbc(%rax)
/home/rgesteve/projects/zlib-1.2.11/build/../deflate.c:612
    4d5d:	mov    -0x10(%rbp),%rax
    4d61:	mov    -0x30(%rbp),%edx
    4d64:	mov    %edx,0xc8(%rax)
/home/rgesteve/projects/zlib-1.2.11/build/../deflate.c:613
    4d6a:	mov    $0x0,%eax
/home/rgesteve/projects/zlib-1.2.11/build/../deflate.c:614
    4d6f:	leaveq 
    4d70:	retq   

0000000000004d71 <deflateTune>:
deflateTune():
/home/rgesteve/projects/zlib-1.2.11/build/../deflate.c:623
    4d71:	push   %rbp
    4d72:	mov    %rsp,%rbp
    4d75:	sub    $0x28,%rsp
    4d79:	mov    %rdi,-0x18(%rbp)
    4d7d:	mov    %esi,-0x1c(%rbp)
    4d80:	mov    %edx,-0x20(%rbp)
    4d83:	mov    %ecx,-0x24(%rbp)
    4d86:	mov    %r8d,-0x28(%rbp)
/home/rgesteve/projects/zlib-1.2.11/build/../deflate.c:626
    4d8a:	mov    -0x18(%rbp),%rax
    4d8e:	mov    %rax,%rdi
    4d91:	callq  4316 <deflateStateCheck>
    4d96:	test   %eax,%eax
    4d98:	je     4da1 <deflateTune+0x30>
/home/rgesteve/projects/zlib-1.2.11/build/../deflate.c:626 (discriminator 1)
    4d9a:	mov    $0xfffffffe,%eax
    4d9f:	jmp    4de6 <deflateTune+0x75>
/home/rgesteve/projects/zlib-1.2.11/build/../deflate.c:627
    4da1:	mov    -0x18(%rbp),%rax
    4da5:	mov    0x38(%rax),%rax
    4da9:	mov    %rax,-0x8(%rbp)
/home/rgesteve/projects/zlib-1.2.11/build/../deflate.c:628
    4dad:	mov    -0x1c(%rbp),%edx
    4db0:	mov    -0x8(%rbp),%rax
    4db4:	mov    %edx,0xcc(%rax)
/home/rgesteve/projects/zlib-1.2.11/build/../deflate.c:629
    4dba:	mov    -0x20(%rbp),%edx
    4dbd:	mov    -0x8(%rbp),%rax
    4dc1:	mov    %edx,0xc0(%rax)
/home/rgesteve/projects/zlib-1.2.11/build/../deflate.c:630
    4dc7:	mov    -0x8(%rbp),%rax
    4dcb:	mov    -0x24(%rbp),%edx
    4dce:	mov    %edx,0xd0(%rax)
/home/rgesteve/projects/zlib-1.2.11/build/../deflate.c:631
    4dd4:	mov    -0x28(%rbp),%edx
    4dd7:	mov    -0x8(%rbp),%rax
    4ddb:	mov    %edx,0xbc(%rax)
/home/rgesteve/projects/zlib-1.2.11/build/../deflate.c:632
    4de1:	mov    $0x0,%eax
/home/rgesteve/projects/zlib-1.2.11/build/../deflate.c:633
    4de6:	leaveq 
    4de7:	retq   

0000000000004de8 <deflateBound>:
deflateBound():
/home/rgesteve/projects/zlib-1.2.11/build/../deflate.c:655
    4de8:	push   %rbp
    4de9:	mov    %rsp,%rbp
    4dec:	sub    $0x30,%rsp
    4df0:	mov    %rdi,-0x28(%rbp)
    4df4:	mov    %rsi,-0x30(%rbp)
/home/rgesteve/projects/zlib-1.2.11/build/../deflate.c:661
    4df8:	mov    -0x30(%rbp),%rax
    4dfc:	add    $0x7,%rax
    4e00:	shr    $0x3,%rax
    4e04:	mov    %rax,%rdx
/home/rgesteve/projects/zlib-1.2.11/build/../deflate.c:660
    4e07:	mov    -0x30(%rbp),%rax
    4e0b:	add    %rax,%rdx
/home/rgesteve/projects/zlib-1.2.11/build/../deflate.c:661
    4e0e:	mov    -0x30(%rbp),%rax
    4e12:	add    $0x3f,%rax
    4e16:	shr    $0x6,%rax
    4e1a:	add    %rdx,%rax
/home/rgesteve/projects/zlib-1.2.11/build/../deflate.c:660
    4e1d:	add    $0x5,%rax
    4e21:	mov    %rax,-0x10(%rbp)
/home/rgesteve/projects/zlib-1.2.11/build/../deflate.c:664
    4e25:	mov    -0x28(%rbp),%rax
    4e29:	mov    %rax,%rdi
    4e2c:	callq  4316 <deflateStateCheck>
    4e31:	test   %eax,%eax
    4e33:	je     4e42 <deflateBound+0x5a>
/home/rgesteve/projects/zlib-1.2.11/build/../deflate.c:665
    4e35:	mov    -0x10(%rbp),%rax
    4e39:	add    $0x6,%rax
    4e3d:	jmpq   4faf <deflateBound+0x1c7>
/home/rgesteve/projects/zlib-1.2.11/build/../deflate.c:668
    4e42:	mov    -0x28(%rbp),%rax
    4e46:	mov    0x38(%rax),%rax
    4e4a:	mov    %rax,-0x8(%rbp)
/home/rgesteve/projects/zlib-1.2.11/build/../deflate.c:669
    4e4e:	mov    -0x8(%rbp),%rax
    4e52:	mov    0x30(%rax),%eax
    4e55:	cmp    $0x1,%eax
    4e58:	je     4e74 <deflateBound+0x8c>
    4e5a:	cmp    $0x2,%eax
    4e5d:	je     4e97 <deflateBound+0xaf>
    4e5f:	test   %eax,%eax
    4e61:	jne    4f49 <deflateBound+0x161>
/home/rgesteve/projects/zlib-1.2.11/build/../deflate.c:671
    4e67:	movq   $0x0,-0x20(%rbp)
/home/rgesteve/projects/zlib-1.2.11/build/../deflate.c:672
    4e6f:	jmpq   4f54 <deflateBound+0x16c>
/home/rgesteve/projects/zlib-1.2.11/build/../deflate.c:674
    4e74:	mov    -0x8(%rbp),%rax
    4e78:	mov    0xac(%rax),%eax
    4e7e:	test   %eax,%eax
    4e80:	je     4e89 <deflateBound+0xa1>
/home/rgesteve/projects/zlib-1.2.11/build/../deflate.c:674 (discriminator 1)
    4e82:	mov    $0xa,%eax
    4e87:	jmp    4e8e <deflateBound+0xa6>
/home/rgesteve/projects/zlib-1.2.11/build/../deflate.c:674 (discriminator 2)
    4e89:	mov    $0x6,%eax
/home/rgesteve/projects/zlib-1.2.11/build/../deflate.c:674 (discriminator 4)
    4e8e:	mov    %rax,-0x20(%rbp)
/home/rgesteve/projects/zlib-1.2.11/build/../deflate.c:675 (discriminator 4)
    4e92:	jmpq   4f54 <deflateBound+0x16c>
/home/rgesteve/projects/zlib-1.2.11/build/../deflate.c:678
    4e97:	movq   $0x12,-0x20(%rbp)
/home/rgesteve/projects/zlib-1.2.11/build/../deflate.c:679
    4e9f:	mov    -0x8(%rbp),%rax
    4ea3:	mov    0x38(%rax),%rax
    4ea7:	test   %rax,%rax
    4eaa:	je     4f53 <deflateBound+0x16b>
/home/rgesteve/projects/zlib-1.2.11/build/../deflate.c:681
    4eb0:	mov    -0x8(%rbp),%rax
    4eb4:	mov    0x38(%rax),%rax
    4eb8:	mov    0x18(%rax),%rax
    4ebc:	test   %rax,%rax
    4ebf:	je     4ed5 <deflateBound+0xed>
/home/rgesteve/projects/zlib-1.2.11/build/../deflate.c:682
    4ec1:	mov    -0x8(%rbp),%rax
    4ec5:	mov    0x38(%rax),%rax
    4ec9:	mov    0x20(%rax),%eax
    4ecc:	add    $0x2,%eax
    4ecf:	mov    %eax,%eax
    4ed1:	add    %rax,-0x20(%rbp)
/home/rgesteve/projects/zlib-1.2.11/build/../deflate.c:683
    4ed5:	mov    -0x8(%rbp),%rax
    4ed9:	mov    0x38(%rax),%rax
    4edd:	mov    0x28(%rax),%rax
    4ee1:	mov    %rax,-0x18(%rbp)
/home/rgesteve/projects/zlib-1.2.11/build/../deflate.c:684
    4ee5:	cmpq   $0x0,-0x18(%rbp)
    4eea:	je     4f04 <deflateBound+0x11c>
/home/rgesteve/projects/zlib-1.2.11/build/../deflate.c:686 (discriminator 1)
    4eec:	addq   $0x1,-0x20(%rbp)
/home/rgesteve/projects/zlib-1.2.11/build/../deflate.c:687 (discriminator 1)
    4ef1:	mov    -0x18(%rbp),%rax
    4ef5:	lea    0x1(%rax),%rdx
    4ef9:	mov    %rdx,-0x18(%rbp)
    4efd:	movzbl (%rax),%eax
    4f00:	test   %al,%al
    4f02:	jne    4eec <deflateBound+0x104>
/home/rgesteve/projects/zlib-1.2.11/build/../deflate.c:688
    4f04:	mov    -0x8(%rbp),%rax
    4f08:	mov    0x38(%rax),%rax
    4f0c:	mov    0x38(%rax),%rax
    4f10:	mov    %rax,-0x18(%rbp)
/home/rgesteve/projects/zlib-1.2.11/build/../deflate.c:689
    4f14:	cmpq   $0x0,-0x18(%rbp)
    4f19:	je     4f33 <deflateBound+0x14b>
/home/rgesteve/projects/zlib-1.2.11/build/../deflate.c:691 (discriminator 1)
    4f1b:	addq   $0x1,-0x20(%rbp)
/home/rgesteve/projects/zlib-1.2.11/build/../deflate.c:692 (discriminator 1)
    4f20:	mov    -0x18(%rbp),%rax
    4f24:	lea    0x1(%rax),%rdx
    4f28:	mov    %rdx,-0x18(%rbp)
    4f2c:	movzbl (%rax),%eax
    4f2f:	test   %al,%al
    4f31:	jne    4f1b <deflateBound+0x133>
/home/rgesteve/projects/zlib-1.2.11/build/../deflate.c:693
    4f33:	mov    -0x8(%rbp),%rax
    4f37:	mov    0x38(%rax),%rax
    4f3b:	mov    0x44(%rax),%eax
    4f3e:	test   %eax,%eax
    4f40:	je     4f53 <deflateBound+0x16b>
/home/rgesteve/projects/zlib-1.2.11/build/../deflate.c:694
    4f42:	addq   $0x2,-0x20(%rbp)
/home/rgesteve/projects/zlib-1.2.11/build/../deflate.c:696
    4f47:	jmp    4f53 <deflateBound+0x16b>
/home/rgesteve/projects/zlib-1.2.11/build/../deflate.c:699
    4f49:	movq   $0x6,-0x20(%rbp)
    4f51:	jmp    4f54 <deflateBound+0x16c>
/home/rgesteve/projects/zlib-1.2.11/build/../deflate.c:696
    4f53:	nop
/home/rgesteve/projects/zlib-1.2.11/build/../deflate.c:703
    4f54:	mov    -0x8(%rbp),%rax
    4f58:	mov    0x54(%rax),%eax
    4f5b:	cmp    $0xf,%eax
    4f5e:	jne    4f6f <deflateBound+0x187>
/home/rgesteve/projects/zlib-1.2.11/build/../deflate.c:703 (discriminator 1)
    4f60:	mov    -0x8(%rbp),%rax
    4f64:	mov    0x88(%rax),%eax
    4f6a:	cmp    $0xf,%eax
    4f6d:	je     4f7c <deflateBound+0x194>
/home/rgesteve/projects/zlib-1.2.11/build/../deflate.c:704
    4f6f:	mov    -0x10(%rbp),%rdx
    4f73:	mov    -0x20(%rbp),%rax
    4f77:	add    %rdx,%rax
    4f7a:	jmp    4faf <deflateBound+0x1c7>
/home/rgesteve/projects/zlib-1.2.11/build/../deflate.c:707
    4f7c:	mov    -0x30(%rbp),%rax
    4f80:	shr    $0xc,%rax
    4f84:	mov    %rax,%rdx
    4f87:	mov    -0x30(%rbp),%rax
    4f8b:	add    %rax,%rdx
    4f8e:	mov    -0x30(%rbp),%rax
    4f92:	shr    $0xe,%rax
    4f96:	add    %rax,%rdx
/home/rgesteve/projects/zlib-1.2.11/build/../deflate.c:708
    4f99:	mov    -0x30(%rbp),%rax
    4f9d:	shr    $0x19,%rax
/home/rgesteve/projects/zlib-1.2.11/build/../deflate.c:707
    4fa1:	add    %rax,%rdx
/home/rgesteve/projects/zlib-1.2.11/build/../deflate.c:708
    4fa4:	mov    -0x20(%rbp),%rax
    4fa8:	add    %rdx,%rax
    4fab:	add    $0x7,%rax
/home/rgesteve/projects/zlib-1.2.11/build/../deflate.c:709
    4faf:	leaveq 
    4fb0:	retq   

0000000000004fb1 <putShortMSB>:
putShortMSB():
/home/rgesteve/projects/zlib-1.2.11/build/../deflate.c:719
    4fb1:	push   %rbp
    4fb2:	mov    %rsp,%rbp
    4fb5:	mov    %rdi,-0x8(%rbp)
    4fb9:	mov    %esi,-0xc(%rbp)
/home/rgesteve/projects/zlib-1.2.11/build/../deflate.c:720
    4fbc:	mov    -0xc(%rbp),%eax
    4fbf:	shr    $0x8,%eax
    4fc2:	mov    %eax,%edi
    4fc4:	mov    -0x8(%rbp),%rax
    4fc8:	mov    0x10(%rax),%rsi
    4fcc:	mov    -0x8(%rbp),%rax
    4fd0:	mov    0x28(%rax),%rax
    4fd4:	lea    0x1(%rax),%rcx
    4fd8:	mov    -0x8(%rbp),%rdx
    4fdc:	mov    %rcx,0x28(%rdx)
    4fe0:	add    %rsi,%rax
    4fe3:	mov    %edi,%edx
    4fe5:	mov    %dl,(%rax)
/home/rgesteve/projects/zlib-1.2.11/build/../deflate.c:721
    4fe7:	mov    -0x8(%rbp),%rax
    4feb:	mov    0x10(%rax),%rsi
    4fef:	mov    -0x8(%rbp),%rax
    4ff3:	mov    0x28(%rax),%rax
    4ff7:	lea    0x1(%rax),%rcx
    4ffb:	mov    -0x8(%rbp),%rdx
    4fff:	mov    %rcx,0x28(%rdx)
    5003:	add    %rsi,%rax
    5006:	mov    -0xc(%rbp),%edx
    5009:	mov    %dl,(%rax)
/home/rgesteve/projects/zlib-1.2.11/build/../deflate.c:722
    500b:	nop
    500c:	pop    %rbp
    500d:	retq   

000000000000500e <flush_pending>:
flush_pending():
/home/rgesteve/projects/zlib-1.2.11/build/../deflate.c:732
    500e:	push   %rbp
    500f:	mov    %rsp,%rbp
    5012:	sub    $0x20,%rsp
    5016:	mov    %rdi,-0x18(%rbp)
/home/rgesteve/projects/zlib-1.2.11/build/../deflate.c:734
    501a:	mov    -0x18(%rbp),%rax
    501e:	mov    0x38(%rax),%rax
    5022:	mov    %rax,-0x8(%rbp)
/home/rgesteve/projects/zlib-1.2.11/build/../deflate.c:736
    5026:	mov    -0x8(%rbp),%rax
    502a:	mov    %rax,%rdi
    502d:	callq  14be6 <_tr_flush_bits>
/home/rgesteve/projects/zlib-1.2.11/build/../deflate.c:737
    5032:	mov    -0x8(%rbp),%rax
    5036:	mov    0x28(%rax),%rax
    503a:	mov    %eax,-0xc(%rbp)
/home/rgesteve/projects/zlib-1.2.11/build/../deflate.c:738
    503d:	mov    -0x18(%rbp),%rax
    5041:	mov    0x20(%rax),%eax
    5044:	cmp    %eax,-0xc(%rbp)
    5047:	jbe    5053 <flush_pending+0x45>
/home/rgesteve/projects/zlib-1.2.11/build/../deflate.c:738 (discriminator 1)
    5049:	mov    -0x18(%rbp),%rax
    504d:	mov    0x20(%rax),%eax
    5050:	mov    %eax,-0xc(%rbp)
/home/rgesteve/projects/zlib-1.2.11/build/../deflate.c:739
    5053:	cmpl   $0x0,-0xc(%rbp)
    5057:	je     5105 <flush_pending+0xf7>
/home/rgesteve/projects/zlib-1.2.11/build/../deflate.c:741
    505d:	mov    -0xc(%rbp),%edx
    5060:	mov    -0x8(%rbp),%rax
    5064:	mov    0x20(%rax),%rcx
    5068:	mov    -0x18(%rbp),%rax
    506c:	mov    0x18(%rax),%rax
    5070:	mov    %rcx,%rsi
    5073:	mov    %rax,%rdi
    5076:	callq  2210 <memcpy@plt>
/home/rgesteve/projects/zlib-1.2.11/build/../deflate.c:742
    507b:	mov    -0x18(%rbp),%rax
    507f:	mov    0x18(%rax),%rdx
    5083:	mov    -0xc(%rbp),%eax
    5086:	add    %rax,%rdx
    5089:	mov    -0x18(%rbp),%rax
    508d:	mov    %rdx,0x18(%rax)
/home/rgesteve/projects/zlib-1.2.11/build/../deflate.c:743
    5091:	mov    -0x8(%rbp),%rax
    5095:	mov    0x20(%rax),%rdx
    5099:	mov    -0xc(%rbp),%eax
    509c:	add    %rax,%rdx
    509f:	mov    -0x8(%rbp),%rax
    50a3:	mov    %rdx,0x20(%rax)
/home/rgesteve/projects/zlib-1.2.11/build/../deflate.c:744
    50a7:	mov    -0x18(%rbp),%rax
    50ab:	mov    0x28(%rax),%rdx
    50af:	mov    -0xc(%rbp),%eax
    50b2:	add    %rax,%rdx
    50b5:	mov    -0x18(%rbp),%rax
    50b9:	mov    %rdx,0x28(%rax)
/home/rgesteve/projects/zlib-1.2.11/build/../deflate.c:745
    50bd:	mov    -0x18(%rbp),%rax
    50c1:	mov    0x20(%rax),%eax
    50c4:	sub    -0xc(%rbp),%eax
    50c7:	mov    %eax,%edx
    50c9:	mov    -0x18(%rbp),%rax
    50cd:	mov    %edx,0x20(%rax)
/home/rgesteve/projects/zlib-1.2.11/build/../deflate.c:746
    50d0:	mov    -0x8(%rbp),%rax
    50d4:	mov    0x28(%rax),%rdx
    50d8:	mov    -0xc(%rbp),%eax
    50db:	sub    %rax,%rdx
    50de:	mov    -0x8(%rbp),%rax
    50e2:	mov    %rdx,0x28(%rax)
/home/rgesteve/projects/zlib-1.2.11/build/../deflate.c:747
    50e6:	mov    -0x8(%rbp),%rax
    50ea:	mov    0x28(%rax),%rax
    50ee:	test   %rax,%rax
    50f1:	jne    5106 <flush_pending+0xf8>
/home/rgesteve/projects/zlib-1.2.11/build/../deflate.c:748
    50f3:	mov    -0x8(%rbp),%rax
    50f7:	mov    0x10(%rax),%rdx
    50fb:	mov    -0x8(%rbp),%rax
    50ff:	mov    %rdx,0x20(%rax)
    5103:	jmp    5106 <flush_pending+0xf8>
/home/rgesteve/projects/zlib-1.2.11/build/../deflate.c:739
    5105:	nop
/home/rgesteve/projects/zlib-1.2.11/build/../deflate.c:750
    5106:	leaveq 
    5107:	retq   

0000000000005108 <deflate>:
deflate():
/home/rgesteve/projects/zlib-1.2.11/build/../deflate.c:766
    5108:	push   %rbp
    5109:	mov    %rsp,%rbp
    510c:	sub    $0x50,%rsp
    5110:	mov    %rdi,-0x48(%rbp)
    5114:	mov    %esi,-0x4c(%rbp)
/home/rgesteve/projects/zlib-1.2.11/build/../deflate.c:770
    5117:	mov    -0x48(%rbp),%rax
    511b:	mov    %rax,%rdi
    511e:	callq  4316 <deflateStateCheck>
    5123:	test   %eax,%eax
    5125:	jne    5133 <deflate+0x2b>
/home/rgesteve/projects/zlib-1.2.11/build/../deflate.c:770 (discriminator 1)
    5127:	cmpl   $0x5,-0x4c(%rbp)
    512b:	jg     5133 <deflate+0x2b>
/home/rgesteve/projects/zlib-1.2.11/build/../deflate.c:770 (discriminator 2)
    512d:	cmpl   $0x0,-0x4c(%rbp)
    5131:	jns    513d <deflate+0x35>
/home/rgesteve/projects/zlib-1.2.11/build/../deflate.c:771
    5133:	mov    $0xfffffffe,%eax
    5138:	jmpq   63eb <deflate+0x12e3>
/home/rgesteve/projects/zlib-1.2.11/build/../deflate.c:773
    513d:	mov    -0x48(%rbp),%rax
    5141:	mov    0x38(%rax),%rax
    5145:	mov    %rax,-0x8(%rbp)
/home/rgesteve/projects/zlib-1.2.11/build/../deflate.c:775
    5149:	mov    -0x48(%rbp),%rax
    514d:	mov    0x18(%rax),%rax
    5151:	test   %rax,%rax
    5154:	je     5181 <deflate+0x79>
/home/rgesteve/projects/zlib-1.2.11/build/../deflate.c:776 (discriminator 1)
    5156:	mov    -0x48(%rbp),%rax
    515a:	mov    0x8(%rax),%eax
/home/rgesteve/projects/zlib-1.2.11/build/../deflate.c:775 (discriminator 1)
    515d:	test   %eax,%eax
    515f:	je     516d <deflate+0x65>
/home/rgesteve/projects/zlib-1.2.11/build/../deflate.c:776
    5161:	mov    -0x48(%rbp),%rax
    5165:	mov    (%rax),%rax
    5168:	test   %rax,%rax
    516b:	je     5181 <deflate+0x79>
/home/rgesteve/projects/zlib-1.2.11/build/../deflate.c:777 (discriminator 1)
    516d:	mov    -0x8(%rbp),%rax
    5171:	mov    0x8(%rax),%eax
/home/rgesteve/projects/zlib-1.2.11/build/../deflate.c:776 (discriminator 1)
    5174:	cmp    $0x29a,%eax
    5179:	jne    519e <deflate+0x96>
/home/rgesteve/projects/zlib-1.2.11/build/../deflate.c:777
    517b:	cmpl   $0x4,-0x4c(%rbp)
    517f:	je     519e <deflate+0x96>
/home/rgesteve/projects/zlib-1.2.11/build/../deflate.c:778
    5181:	lea    0x217c18(%rip),%rax        # 21cda0 <z_errmsg>
    5188:	mov    0x20(%rax),%rdx
    518c:	mov    -0x48(%rbp),%rax
    5190:	mov    %rdx,0x30(%rax)
    5194:	mov    $0xfffffffe,%eax
    5199:	jmpq   63eb <deflate+0x12e3>
/home/rgesteve/projects/zlib-1.2.11/build/../deflate.c:780
    519e:	mov    -0x48(%rbp),%rax
    51a2:	mov    0x20(%rax),%eax
    51a5:	test   %eax,%eax
    51a7:	jne    51c6 <deflate+0xbe>
/home/rgesteve/projects/zlib-1.2.11/build/../deflate.c:780 (discriminator 1)
    51a9:	lea    0x217bf0(%rip),%rax        # 21cda0 <z_errmsg>
    51b0:	mov    0x38(%rax),%rdx
    51b4:	mov    -0x48(%rbp),%rax
    51b8:	mov    %rdx,0x30(%rax)
    51bc:	mov    $0xfffffffb,%eax
    51c1:	jmpq   63eb <deflate+0x12e3>
/home/rgesteve/projects/zlib-1.2.11/build/../deflate.c:782
    51c6:	mov    -0x8(%rbp),%rax
    51ca:	mov    0x4c(%rax),%eax
    51cd:	mov    %eax,-0x34(%rbp)
/home/rgesteve/projects/zlib-1.2.11/build/../deflate.c:783
    51d0:	mov    -0x8(%rbp),%rax
    51d4:	mov    -0x4c(%rbp),%edx
    51d7:	mov    %edx,0x4c(%rax)
/home/rgesteve/projects/zlib-1.2.11/build/../deflate.c:786
    51da:	mov    -0x8(%rbp),%rax
    51de:	mov    0x28(%rax),%rax
    51e2:	test   %rax,%rax
    51e5:	je     5213 <deflate+0x10b>
/home/rgesteve/projects/zlib-1.2.11/build/../deflate.c:787
    51e7:	mov    -0x48(%rbp),%rax
    51eb:	mov    %rax,%rdi
    51ee:	callq  500e <flush_pending>
/home/rgesteve/projects/zlib-1.2.11/build/../deflate.c:788
    51f3:	mov    -0x48(%rbp),%rax
    51f7:	mov    0x20(%rax),%eax
    51fa:	test   %eax,%eax
    51fc:	jne    5279 <deflate+0x171>
/home/rgesteve/projects/zlib-1.2.11/build/../deflate.c:795
    51fe:	mov    -0x8(%rbp),%rax
    5202:	movl   $0xffffffff,0x4c(%rax)
/home/rgesteve/projects/zlib-1.2.11/build/../deflate.c:796
    5209:	mov    $0x0,%eax
    520e:	jmpq   63eb <deflate+0x12e3>
/home/rgesteve/projects/zlib-1.2.11/build/../deflate.c:803
    5213:	mov    -0x48(%rbp),%rax
    5217:	mov    0x8(%rax),%eax
    521a:	test   %eax,%eax
    521c:	jne    5279 <deflate+0x171>
/home/rgesteve/projects/zlib-1.2.11/build/../deflate.c:803 (discriminator 1)
    521e:	mov    -0x4c(%rbp),%eax
    5221:	add    %eax,%eax
    5223:	cmpl   $0x4,-0x4c(%rbp)
    5227:	jle    5230 <deflate+0x128>
/home/rgesteve/projects/zlib-1.2.11/build/../deflate.c:803 (discriminator 2)
    5229:	mov    $0x9,%edx
    522e:	jmp    5235 <deflate+0x12d>
/home/rgesteve/projects/zlib-1.2.11/build/../deflate.c:803 (discriminator 3)
    5230:	mov    $0x0,%edx
/home/rgesteve/projects/zlib-1.2.11/build/../deflate.c:803 (discriminator 5)
    5235:	sub    %edx,%eax
    5237:	mov    %eax,%edx
    5239:	mov    -0x34(%rbp),%eax
    523c:	add    %eax,%eax
    523e:	cmpl   $0x4,-0x34(%rbp)
    5242:	jle    524b <deflate+0x143>
/home/rgesteve/projects/zlib-1.2.11/build/../deflate.c:803 (discriminator 6)
    5244:	mov    $0x9,%ecx
    5249:	jmp    5250 <deflate+0x148>
/home/rgesteve/projects/zlib-1.2.11/build/../deflate.c:803 (discriminator 7)
    524b:	mov    $0x0,%ecx
/home/rgesteve/projects/zlib-1.2.11/build/../deflate.c:803 (discriminator 9)
    5250:	sub    %ecx,%eax
    5252:	cmp    %eax,%edx
    5254:	jg     5279 <deflate+0x171>
/home/rgesteve/projects/zlib-1.2.11/build/../deflate.c:803 (discriminator 10)
    5256:	cmpl   $0x4,-0x4c(%rbp)
    525a:	je     5279 <deflate+0x171>
/home/rgesteve/projects/zlib-1.2.11/build/../deflate.c:805
    525c:	lea    0x217b3d(%rip),%rax        # 21cda0 <z_errmsg>
    5263:	mov    0x38(%rax),%rdx
    5267:	mov    -0x48(%rbp),%rax
    526b:	mov    %rdx,0x30(%rax)
    526f:	mov    $0xfffffffb,%eax
    5274:	jmpq   63eb <deflate+0x12e3>
/home/rgesteve/projects/zlib-1.2.11/build/../deflate.c:809
    5279:	mov    -0x8(%rbp),%rax
    527d:	mov    0x8(%rax),%eax
    5280:	cmp    $0x29a,%eax
    5285:	jne    52af <deflate+0x1a7>
/home/rgesteve/projects/zlib-1.2.11/build/../deflate.c:809 (discriminator 1)
    5287:	mov    -0x48(%rbp),%rax
    528b:	mov    0x8(%rax),%eax
    528e:	test   %eax,%eax
    5290:	je     52af <deflate+0x1a7>
/home/rgesteve/projects/zlib-1.2.11/build/../deflate.c:810
    5292:	lea    0x217b07(%rip),%rax        # 21cda0 <z_errmsg>
    5299:	mov    0x38(%rax),%rdx
    529d:	mov    -0x48(%rbp),%rax
    52a1:	mov    %rdx,0x30(%rax)
    52a5:	mov    $0xfffffffb,%eax
    52aa:	jmpq   63eb <deflate+0x12e3>
/home/rgesteve/projects/zlib-1.2.11/build/../deflate.c:814
    52af:	mov    -0x8(%rbp),%rax
    52b3:	mov    0x8(%rax),%eax
    52b6:	cmp    $0x2a,%eax
    52b9:	jne    5429 <deflate+0x321>
/home/rgesteve/projects/zlib-1.2.11/build/../deflate.c:816
    52bf:	mov    -0x8(%rbp),%rax
    52c3:	mov    0x54(%rax),%eax
    52c6:	sub    $0x8,%eax
    52c9:	shl    $0x4,%eax
    52cc:	add    $0x8,%eax
    52cf:	shl    $0x8,%eax
    52d2:	mov    %eax,-0x40(%rbp)
/home/rgesteve/projects/zlib-1.2.11/build/../deflate.c:819
    52d5:	mov    -0x8(%rbp),%rax
    52d9:	mov    0xc8(%rax),%eax
    52df:	cmp    $0x1,%eax
    52e2:	jg     52f3 <deflate+0x1eb>
/home/rgesteve/projects/zlib-1.2.11/build/../deflate.c:819 (discriminator 1)
    52e4:	mov    -0x8(%rbp),%rax
    52e8:	mov    0xc4(%rax),%eax
    52ee:	cmp    $0x1,%eax
    52f1:	jg     52fc <deflate+0x1f4>
/home/rgesteve/projects/zlib-1.2.11/build/../deflate.c:820
    52f3:	movl   $0x0,-0x3c(%rbp)
    52fa:	jmp    5333 <deflate+0x22b>
/home/rgesteve/projects/zlib-1.2.11/build/../deflate.c:821
    52fc:	mov    -0x8(%rbp),%rax
    5300:	mov    0xc4(%rax),%eax
    5306:	cmp    $0x5,%eax
    5309:	jg     5314 <deflate+0x20c>
/home/rgesteve/projects/zlib-1.2.11/build/../deflate.c:822
    530b:	movl   $0x1,-0x3c(%rbp)
    5312:	jmp    5333 <deflate+0x22b>
/home/rgesteve/projects/zlib-1.2.11/build/../deflate.c:823
    5314:	mov    -0x8(%rbp),%rax
    5318:	mov    0xc4(%rax),%eax
    531e:	cmp    $0x6,%eax
    5321:	jne    532c <deflate+0x224>
/home/rgesteve/projects/zlib-1.2.11/build/../deflate.c:824
    5323:	movl   $0x2,-0x3c(%rbp)
    532a:	jmp    5333 <deflate+0x22b>
/home/rgesteve/projects/zlib-1.2.11/build/../deflate.c:826
    532c:	movl   $0x3,-0x3c(%rbp)
/home/rgesteve/projects/zlib-1.2.11/build/../deflate.c:827
    5333:	mov    -0x3c(%rbp),%eax
    5336:	shl    $0x6,%eax
    5339:	or     %eax,-0x40(%rbp)
/home/rgesteve/projects/zlib-1.2.11/build/../deflate.c:828
    533c:	mov    -0x8(%rbp),%rax
    5340:	mov    0xac(%rax),%eax
    5346:	test   %eax,%eax
    5348:	je     534e <deflate+0x246>
/home/rgesteve/projects/zlib-1.2.11/build/../deflate.c:828 (discriminator 1)
    534a:	orl    $0x20,-0x40(%rbp)
/home/rgesteve/projects/zlib-1.2.11/build/../deflate.c:829
    534e:	mov    -0x40(%rbp),%ecx
    5351:	mov    $0x8421085,%edx
    5356:	mov    %ecx,%eax
    5358:	mul    %edx
    535a:	mov    %ecx,%eax
    535c:	sub    %edx,%eax
    535e:	shr    %eax
    5360:	add    %edx,%eax
    5362:	shr    $0x4,%eax
    5365:	mov    %eax,%edx
    5367:	shl    $0x5,%edx
    536a:	sub    %eax,%edx
    536c:	mov    %ecx,%eax
    536e:	sub    %edx,%eax
    5370:	mov    -0x40(%rbp),%edx
    5373:	sub    %eax,%edx
    5375:	mov    %edx,%eax
    5377:	add    $0x1f,%eax
    537a:	mov    %eax,-0x40(%rbp)
/home/rgesteve/projects/zlib-1.2.11/build/../deflate.c:831
    537d:	mov    -0x40(%rbp),%edx
    5380:	mov    -0x8(%rbp),%rax
    5384:	mov    %edx,%esi
    5386:	mov    %rax,%rdi
    5389:	callq  4fb1 <putShortMSB>
/home/rgesteve/projects/zlib-1.2.11/build/../deflate.c:834
    538e:	mov    -0x8(%rbp),%rax
    5392:	mov    0xac(%rax),%eax
    5398:	test   %eax,%eax
    539a:	je     53d1 <deflate+0x2c9>
/home/rgesteve/projects/zlib-1.2.11/build/../deflate.c:835
    539c:	mov    -0x48(%rbp),%rax
    53a0:	mov    0x60(%rax),%rax
    53a4:	shr    $0x10,%rax
    53a8:	mov    %eax,%edx
    53aa:	mov    -0x8(%rbp),%rax
    53ae:	mov    %edx,%esi
    53b0:	mov    %rax,%rdi
    53b3:	callq  4fb1 <putShortMSB>
/home/rgesteve/projects/zlib-1.2.11/build/../deflate.c:836
    53b8:	mov    -0x48(%rbp),%rax
    53bc:	mov    0x60(%rax),%rax
    53c0:	movzwl %ax,%edx
    53c3:	mov    -0x8(%rbp),%rax
    53c7:	mov    %edx,%esi
    53c9:	mov    %rax,%rdi
    53cc:	callq  4fb1 <putShortMSB>
/home/rgesteve/projects/zlib-1.2.11/build/../deflate.c:838
    53d1:	mov    $0x0,%edx
    53d6:	mov    $0x0,%esi
    53db:	mov    $0x0,%edi
    53e0:	callq  2240 <adler32@plt>
    53e5:	mov    %rax,%rdx
    53e8:	mov    -0x48(%rbp),%rax
    53ec:	mov    %rdx,0x60(%rax)
/home/rgesteve/projects/zlib-1.2.11/build/../deflate.c:839
    53f0:	mov    -0x8(%rbp),%rax
    53f4:	movl   $0x71,0x8(%rax)
/home/rgesteve/projects/zlib-1.2.11/build/../deflate.c:842
    53fb:	mov    -0x48(%rbp),%rax
    53ff:	mov    %rax,%rdi
    5402:	callq  500e <flush_pending>
/home/rgesteve/projects/zlib-1.2.11/build/../deflate.c:843
    5407:	mov    -0x8(%rbp),%rax
    540b:	mov    0x28(%rax),%rax
    540f:	test   %rax,%rax
    5412:	je     5429 <deflate+0x321>
/home/rgesteve/projects/zlib-1.2.11/build/../deflate.c:844
    5414:	mov    -0x8(%rbp),%rax
    5418:	movl   $0xffffffff,0x4c(%rax)
/home/rgesteve/projects/zlib-1.2.11/build/../deflate.c:845
    541f:	mov    $0x0,%eax
    5424:	jmpq   63eb <deflate+0x12e3>
/home/rgesteve/projects/zlib-1.2.11/build/../deflate.c:849
    5429:	mov    -0x8(%rbp),%rax
    542d:	mov    0x8(%rax),%eax
    5430:	cmp    $0x39,%eax
    5433:	jne    591b <deflate+0x813>
/home/rgesteve/projects/zlib-1.2.11/build/../deflate.c:851
    5439:	mov    $0x0,%edx
    543e:	mov    $0x0,%esi
    5443:	mov    $0x0,%edi
    5448:	callq  2110 <crc32@plt>
    544d:	mov    %rax,%rdx
    5450:	mov    -0x48(%rbp),%rax
    5454:	mov    %rdx,0x60(%rax)
/home/rgesteve/projects/zlib-1.2.11/build/../deflate.c:852
    5458:	mov    -0x8(%rbp),%rax
    545c:	mov    0x10(%rax),%rsi
    5460:	mov    -0x8(%rbp),%rax
    5464:	mov    0x28(%rax),%rax
    5468:	lea    0x1(%rax),%rcx
    546c:	mov    -0x8(%rbp),%rdx
    5470:	mov    %rcx,0x28(%rdx)
    5474:	add    %rsi,%rax
    5477:	movb   $0x1f,(%rax)
/home/rgesteve/projects/zlib-1.2.11/build/../deflate.c:853
    547a:	mov    -0x8(%rbp),%rax
    547e:	mov    0x10(%rax),%rsi
    5482:	mov    -0x8(%rbp),%rax
    5486:	mov    0x28(%rax),%rax
    548a:	lea    0x1(%rax),%rcx
    548e:	mov    -0x8(%rbp),%rdx
    5492:	mov    %rcx,0x28(%rdx)
    5496:	add    %rsi,%rax
    5499:	movb   $0x8b,(%rax)
/home/rgesteve/projects/zlib-1.2.11/build/../deflate.c:854
    549c:	mov    -0x8(%rbp),%rax
    54a0:	mov    0x10(%rax),%rsi
    54a4:	mov    -0x8(%rbp),%rax
    54a8:	mov    0x28(%rax),%rax
    54ac:	lea    0x1(%rax),%rcx
    54b0:	mov    -0x8(%rbp),%rdx
    54b4:	mov    %rcx,0x28(%rdx)
    54b8:	add    %rsi,%rax
    54bb:	movb   $0x8,(%rax)
/home/rgesteve/projects/zlib-1.2.11/build/../deflate.c:855
    54be:	mov    -0x8(%rbp),%rax
    54c2:	mov    0x38(%rax),%rax
    54c6:	test   %rax,%rax
    54c9:	jne    5639 <deflate+0x531>
/home/rgesteve/projects/zlib-1.2.11/build/../deflate.c:856
    54cf:	mov    -0x8(%rbp),%rax
    54d3:	mov    0x10(%rax),%rsi
    54d7:	mov    -0x8(%rbp),%rax
    54db:	mov    0x28(%rax),%rax
    54df:	lea    0x1(%rax),%rcx
    54e3:	mov    -0x8(%rbp),%rdx
    54e7:	mov    %rcx,0x28(%rdx)
    54eb:	add    %rsi,%rax
    54ee:	movb   $0x0,(%rax)
/home/rgesteve/projects/zlib-1.2.11/build/../deflate.c:857
    54f1:	mov    -0x8(%rbp),%rax
    54f5:	mov    0x10(%rax),%rsi
    54f9:	mov    -0x8(%rbp),%rax
    54fd:	mov    0x28(%rax),%rax
    5501:	lea    0x1(%rax),%rcx
    5505:	mov    -0x8(%rbp),%rdx
    5509:	mov    %rcx,0x28(%rdx)
    550d:	add    %rsi,%rax
    5510:	movb   $0x0,(%rax)
/home/rgesteve/projects/zlib-1.2.11/build/../deflate.c:858
    5513:	mov    -0x8(%rbp),%rax
    5517:	mov    0x10(%rax),%rsi
    551b:	mov    -0x8(%rbp),%rax
    551f:	mov    0x28(%rax),%rax
    5523:	lea    0x1(%rax),%rcx
    5527:	mov    -0x8(%rbp),%rdx
    552b:	mov    %rcx,0x28(%rdx)
    552f:	add    %rsi,%rax
    5532:	movb   $0x0,(%rax)
/home/rgesteve/projects/zlib-1.2.11/build/../deflate.c:859
    5535:	mov    -0x8(%rbp),%rax
    5539:	mov    0x10(%rax),%rsi
    553d:	mov    -0x8(%rbp),%rax
    5541:	mov    0x28(%rax),%rax
    5545:	lea    0x1(%rax),%rcx
    5549:	mov    -0x8(%rbp),%rdx
    554d:	mov    %rcx,0x28(%rdx)
    5551:	add    %rsi,%rax
    5554:	movb   $0x0,(%rax)
/home/rgesteve/projects/zlib-1.2.11/build/../deflate.c:860
    5557:	mov    -0x8(%rbp),%rax
    555b:	mov    0x10(%rax),%rsi
    555f:	mov    -0x8(%rbp),%rax
    5563:	mov    0x28(%rax),%rax
    5567:	lea    0x1(%rax),%rcx
    556b:	mov    -0x8(%rbp),%rdx
    556f:	mov    %rcx,0x28(%rdx)
    5573:	add    %rsi,%rax
    5576:	movb   $0x0,(%rax)
/home/rgesteve/projects/zlib-1.2.11/build/../deflate.c:861
    5579:	mov    -0x8(%rbp),%rax
    557d:	mov    0xc4(%rax),%eax
    5583:	cmp    $0x9,%eax
    5586:	je     55b4 <deflate+0x4ac>
/home/rgesteve/projects/zlib-1.2.11/build/../deflate.c:861 (discriminator 1)
    5588:	mov    -0x8(%rbp),%rax
    558c:	mov    0xc8(%rax),%eax
    5592:	cmp    $0x1,%eax
    5595:	jg     55a6 <deflate+0x49e>
/home/rgesteve/projects/zlib-1.2.11/build/../deflate.c:861 (discriminator 4)
    5597:	mov    -0x8(%rbp),%rax
    559b:	mov    0xc4(%rax),%eax
    55a1:	cmp    $0x1,%eax
    55a4:	jg     55ad <deflate+0x4a5>
/home/rgesteve/projects/zlib-1.2.11/build/../deflate.c:861 (discriminator 5)
    55a6:	mov    $0x4,%edx
    55ab:	jmp    55b9 <deflate+0x4b1>
/home/rgesteve/projects/zlib-1.2.11/build/../deflate.c:861 (discriminator 6)
    55ad:	mov    $0x0,%edx
    55b2:	jmp    55b9 <deflate+0x4b1>
/home/rgesteve/projects/zlib-1.2.11/build/../deflate.c:861 (discriminator 2)
    55b4:	mov    $0x2,%edx
/home/rgesteve/projects/zlib-1.2.11/build/../deflate.c:861 (discriminator 10)
    55b9:	mov    -0x8(%rbp),%rax
    55bd:	mov    0x10(%rax),%rdi
    55c1:	mov    -0x8(%rbp),%rax
    55c5:	mov    0x28(%rax),%rax
    55c9:	lea    0x1(%rax),%rsi
    55cd:	mov    -0x8(%rbp),%rcx
    55d1:	mov    %rsi,0x28(%rcx)
    55d5:	add    %rdi,%rax
    55d8:	mov    %dl,(%rax)
/home/rgesteve/projects/zlib-1.2.11/build/../deflate.c:864 (discriminator 10)
    55da:	mov    -0x8(%rbp),%rax
    55de:	mov    0x10(%rax),%rsi
    55e2:	mov    -0x8(%rbp),%rax
    55e6:	mov    0x28(%rax),%rax
    55ea:	lea    0x1(%rax),%rcx
    55ee:	mov    -0x8(%rbp),%rdx
    55f2:	mov    %rcx,0x28(%rdx)
    55f6:	add    %rsi,%rax
    55f9:	movb   $0x3,(%rax)
/home/rgesteve/projects/zlib-1.2.11/build/../deflate.c:865 (discriminator 10)
    55fc:	mov    -0x8(%rbp),%rax
    5600:	movl   $0x71,0x8(%rax)
/home/rgesteve/projects/zlib-1.2.11/build/../deflate.c:868 (discriminator 10)
    5607:	mov    -0x48(%rbp),%rax
    560b:	mov    %rax,%rdi
    560e:	callq  500e <flush_pending>
/home/rgesteve/projects/zlib-1.2.11/build/../deflate.c:869 (discriminator 10)
    5613:	mov    -0x8(%rbp),%rax
    5617:	mov    0x28(%rax),%rax
    561b:	test   %rax,%rax
    561e:	je     591b <deflate+0x813>
/home/rgesteve/projects/zlib-1.2.11/build/../deflate.c:870
    5624:	mov    -0x8(%rbp),%rax
    5628:	movl   $0xffffffff,0x4c(%rax)
/home/rgesteve/projects/zlib-1.2.11/build/../deflate.c:871
    562f:	mov    $0x0,%eax
    5634:	jmpq   63eb <deflate+0x12e3>
/home/rgesteve/projects/zlib-1.2.11/build/../deflate.c:875
    5639:	mov    -0x8(%rbp),%rax
    563d:	mov    0x38(%rax),%rax
    5641:	mov    (%rax),%eax
    5643:	test   %eax,%eax
    5645:	je     564e <deflate+0x546>
/home/rgesteve/projects/zlib-1.2.11/build/../deflate.c:875 (discriminator 1)
    5647:	mov    $0x1,%edx
    564c:	jmp    5653 <deflate+0x54b>
/home/rgesteve/projects/zlib-1.2.11/build/../deflate.c:875 (discriminator 2)
    564e:	mov    $0x0,%edx
/home/rgesteve/projects/zlib-1.2.11/build/../deflate.c:875 (discriminator 4)
    5653:	mov    -0x8(%rbp),%rax
    5657:	mov    0x38(%rax),%rax
    565b:	mov    0x44(%rax),%eax
    565e:	test   %eax,%eax
    5660:	je     5669 <deflate+0x561>
/home/rgesteve/projects/zlib-1.2.11/build/../deflate.c:875 (discriminator 5)
    5662:	mov    $0x2,%eax
    5667:	jmp    566e <deflate+0x566>
/home/rgesteve/projects/zlib-1.2.11/build/../deflate.c:875 (discriminator 6)
    5669:	mov    $0x0,%eax
/home/rgesteve/projects/zlib-1.2.11/build/../deflate.c:875 (discriminator 8)
    566e:	add    %eax,%edx
    5670:	mov    -0x8(%rbp),%rax
    5674:	mov    0x38(%rax),%rax
    5678:	mov    0x18(%rax),%rax
    567c:	test   %rax,%rax
    567f:	jne    5688 <deflate+0x580>
/home/rgesteve/projects/zlib-1.2.11/build/../deflate.c:875 (discriminator 9)
    5681:	mov    $0x0,%eax
    5686:	jmp    568d <deflate+0x585>
/home/rgesteve/projects/zlib-1.2.11/build/../deflate.c:875 (discriminator 10)
    5688:	mov    $0x4,%eax
/home/rgesteve/projects/zlib-1.2.11/build/../deflate.c:875 (discriminator 12)
    568d:	add    %eax,%edx
    568f:	mov    -0x8(%rbp),%rax
    5693:	mov    0x38(%rax),%rax
    5697:	mov    0x28(%rax),%rax
    569b:	test   %rax,%rax
    569e:	jne    56a7 <deflate+0x59f>
/home/rgesteve/projects/zlib-1.2.11/build/../deflate.c:875 (discriminator 13)
    56a0:	mov    $0x0,%eax
    56a5:	jmp    56ac <deflate+0x5a4>
/home/rgesteve/projects/zlib-1.2.11/build/../deflate.c:875 (discriminator 14)
    56a7:	mov    $0x8,%eax
/home/rgesteve/projects/zlib-1.2.11/build/../deflate.c:875 (discriminator 16)
    56ac:	lea    (%rax,%rdx,1),%edi
    56af:	mov    -0x8(%rbp),%rax
    56b3:	mov    0x38(%rax),%rax
    56b7:	mov    0x38(%rax),%rax
    56bb:	test   %rax,%rax
    56be:	jne    56c8 <deflate+0x5c0>
/home/rgesteve/projects/zlib-1.2.11/build/../deflate.c:875 (discriminator 17)
    56c0:	mov    $0x0,%r8d
    56c6:	jmp    56ce <deflate+0x5c6>
/home/rgesteve/projects/zlib-1.2.11/build/../deflate.c:875 (discriminator 18)
    56c8:	mov    $0x10,%r8d
/home/rgesteve/projects/zlib-1.2.11/build/../deflate.c:875 (discriminator 20)
    56ce:	mov    -0x8(%rbp),%rax
    56d2:	mov    0x10(%rax),%rsi
    56d6:	mov    -0x8(%rbp),%rax
    56da:	mov    0x28(%rax),%rax
    56de:	lea    0x1(%rax),%rcx
    56e2:	mov    -0x8(%rbp),%rdx
    56e6:	mov    %rcx,0x28(%rdx)
    56ea:	add    %rsi,%rax
    56ed:	lea    (%r8,%rdi,1),%edx
    56f1:	mov    %dl,(%rax)
/home/rgesteve/projects/zlib-1.2.11/build/../deflate.c:881 (discriminator 20)
    56f3:	mov    -0x8(%rbp),%rax
    56f7:	mov    0x38(%rax),%rax
    56fb:	mov    0x8(%rax),%rsi
    56ff:	mov    -0x8(%rbp),%rax
    5703:	mov    0x10(%rax),%rdi
    5707:	mov    -0x8(%rbp),%rax
    570b:	mov    0x28(%rax),%rax
    570f:	lea    0x1(%rax),%rcx
    5713:	mov    -0x8(%rbp),%rdx
    5717:	mov    %rcx,0x28(%rdx)
    571b:	add    %rdi,%rax
    571e:	mov    %esi,%edx
    5720:	mov    %dl,(%rax)
/home/rgesteve/projects/zlib-1.2.11/build/../deflate.c:882 (discriminator 20)
    5722:	mov    -0x8(%rbp),%rax
    5726:	mov    0x38(%rax),%rax
    572a:	mov    0x8(%rax),%rax
    572e:	shr    $0x8,%rax
    5732:	mov    %rax,%rdi
    5735:	mov    -0x8(%rbp),%rax
    5739:	mov    0x10(%rax),%rsi
    573d:	mov    -0x8(%rbp),%rax
    5741:	mov    0x28(%rax),%rax
    5745:	lea    0x1(%rax),%rcx
    5749:	mov    -0x8(%rbp),%rdx
    574d:	mov    %rcx,0x28(%rdx)
    5751:	add    %rsi,%rax
    5754:	mov    %edi,%edx
    5756:	mov    %dl,(%rax)
/home/rgesteve/projects/zlib-1.2.11/build/../deflate.c:883 (discriminator 20)
    5758:	mov    -0x8(%rbp),%rax
    575c:	mov    0x38(%rax),%rax
    5760:	mov    0x8(%rax),%rax
    5764:	shr    $0x10,%rax
    5768:	mov    %rax,%rdi
    576b:	mov    -0x8(%rbp),%rax
    576f:	mov    0x10(%rax),%rsi
    5773:	mov    -0x8(%rbp),%rax
    5777:	mov    0x28(%rax),%rax
    577b:	lea    0x1(%rax),%rcx
    577f:	mov    -0x8(%rbp),%rdx
    5783:	mov    %rcx,0x28(%rdx)
    5787:	add    %rsi,%rax
    578a:	mov    %edi,%edx
    578c:	mov    %dl,(%rax)
/home/rgesteve/projects/zlib-1.2.11/build/../deflate.c:884 (discriminator 20)
    578e:	mov    -0x8(%rbp),%rax
    5792:	mov    0x38(%rax),%rax
    5796:	mov    0x8(%rax),%rax
    579a:	shr    $0x18,%rax
    579e:	mov    %rax,%rdi
    57a1:	mov    -0x8(%rbp),%rax
    57a5:	mov    0x10(%rax),%rsi
    57a9:	mov    -0x8(%rbp),%rax
    57ad:	mov    0x28(%rax),%rax
    57b1:	lea    0x1(%rax),%rcx
    57b5:	mov    -0x8(%rbp),%rdx
    57b9:	mov    %rcx,0x28(%rdx)
    57bd:	add    %rsi,%rax
    57c0:	mov    %edi,%edx
    57c2:	mov    %dl,(%rax)
/home/rgesteve/projects/zlib-1.2.11/build/../deflate.c:885 (discriminator 20)
    57c4:	mov    -0x8(%rbp),%rax
    57c8:	mov    0xc4(%rax),%eax
    57ce:	cmp    $0x9,%eax
    57d1:	je     57ff <deflate+0x6f7>
/home/rgesteve/projects/zlib-1.2.11/build/../deflate.c:885 (discriminator 1)
    57d3:	mov    -0x8(%rbp),%rax
    57d7:	mov    0xc8(%rax),%eax
    57dd:	cmp    $0x1,%eax
    57e0:	jg     57f1 <deflate+0x6e9>
/home/rgesteve/projects/zlib-1.2.11/build/../deflate.c:885 (discriminator 4)
    57e2:	mov    -0x8(%rbp),%rax
    57e6:	mov    0xc4(%rax),%eax
    57ec:	cmp    $0x1,%eax
    57ef:	jg     57f8 <deflate+0x6f0>
/home/rgesteve/projects/zlib-1.2.11/build/../deflate.c:885 (discriminator 5)
    57f1:	mov    $0x4,%edx
    57f6:	jmp    5804 <deflate+0x6fc>
/home/rgesteve/projects/zlib-1.2.11/build/../deflate.c:885 (discriminator 6)
    57f8:	mov    $0x0,%edx
    57fd:	jmp    5804 <deflate+0x6fc>
/home/rgesteve/projects/zlib-1.2.11/build/../deflate.c:885 (discriminator 2)
    57ff:	mov    $0x2,%edx
/home/rgesteve/projects/zlib-1.2.11/build/../deflate.c:885 (discriminator 10)
    5804:	mov    -0x8(%rbp),%rax
    5808:	mov    0x10(%rax),%rdi
    580c:	mov    -0x8(%rbp),%rax
    5810:	mov    0x28(%rax),%rax
    5814:	lea    0x1(%rax),%rsi
    5818:	mov    -0x8(%rbp),%rcx
    581c:	mov    %rsi,0x28(%rcx)
    5820:	add    %rdi,%rax
    5823:	mov    %dl,(%rax)
/home/rgesteve/projects/zlib-1.2.11/build/../deflate.c:888 (discriminator 10)
    5825:	mov    -0x8(%rbp),%rax
    5829:	mov    0x38(%rax),%rax
    582d:	mov    0x14(%rax),%esi
    5830:	mov    -0x8(%rbp),%rax
    5834:	mov    0x10(%rax),%rdi
    5838:	mov    -0x8(%rbp),%rax
    583c:	mov    0x28(%rax),%rax
    5840:	lea    0x1(%rax),%rcx
    5844:	mov    -0x8(%rbp),%rdx
    5848:	mov    %rcx,0x28(%rdx)
    584c:	add    %rdi,%rax
    584f:	mov    %esi,%edx
    5851:	mov    %dl,(%rax)
/home/rgesteve/projects/zlib-1.2.11/build/../deflate.c:889 (discriminator 10)
    5853:	mov    -0x8(%rbp),%rax
    5857:	mov    0x38(%rax),%rax
    585b:	mov    0x18(%rax),%rax
    585f:	test   %rax,%rax
    5862:	je     58c5 <deflate+0x7bd>
/home/rgesteve/projects/zlib-1.2.11/build/../deflate.c:890
    5864:	mov    -0x8(%rbp),%rax
    5868:	mov    0x38(%rax),%rax
    586c:	mov    0x20(%rax),%esi
    586f:	mov    -0x8(%rbp),%rax
    5873:	mov    0x10(%rax),%rdi
    5877:	mov    -0x8(%rbp),%rax
    587b:	mov    0x28(%rax),%rax
    587f:	lea    0x1(%rax),%rcx
    5883:	mov    -0x8(%rbp),%rdx
    5887:	mov    %rcx,0x28(%rdx)
    588b:	add    %rdi,%rax
    588e:	mov    %esi,%edx
    5890:	mov    %dl,(%rax)
/home/rgesteve/projects/zlib-1.2.11/build/../deflate.c:891
    5892:	mov    -0x8(%rbp),%rax
    5896:	mov    0x38(%rax),%rax
    589a:	mov    0x20(%rax),%eax
    589d:	shr    $0x8,%eax
    58a0:	mov    %eax,%edi
    58a2:	mov    -0x8(%rbp),%rax
    58a6:	mov    0x10(%rax),%rsi
    58aa:	mov    -0x8(%rbp),%rax
    58ae:	mov    0x28(%rax),%rax
    58b2:	lea    0x1(%rax),%rcx
    58b6:	mov    -0x8(%rbp),%rdx
    58ba:	mov    %rcx,0x28(%rdx)
    58be:	add    %rsi,%rax
    58c1:	mov    %edi,%edx
    58c3:	mov    %dl,(%rax)
/home/rgesteve/projects/zlib-1.2.11/build/../deflate.c:893
    58c5:	mov    -0x8(%rbp),%rax
    58c9:	mov    0x38(%rax),%rax
    58cd:	mov    0x44(%rax),%eax
    58d0:	test   %eax,%eax
    58d2:	je     5904 <deflate+0x7fc>
/home/rgesteve/projects/zlib-1.2.11/build/../deflate.c:895
    58d4:	mov    -0x8(%rbp),%rax
    58d8:	mov    0x28(%rax),%rax
/home/rgesteve/projects/zlib-1.2.11/build/../deflate.c:894
    58dc:	mov    %eax,%edx
    58de:	mov    -0x8(%rbp),%rax
    58e2:	mov    0x10(%rax),%rcx
    58e6:	mov    -0x48(%rbp),%rax
    58ea:	mov    0x60(%rax),%rax
    58ee:	mov    %rcx,%rsi
    58f1:	mov    %rax,%rdi
    58f4:	callq  2110 <crc32@plt>
    58f9:	mov    %rax,%rdx
    58fc:	mov    -0x48(%rbp),%rax
    5900:	mov    %rdx,0x60(%rax)
/home/rgesteve/projects/zlib-1.2.11/build/../deflate.c:896
    5904:	mov    -0x8(%rbp),%rax
    5908:	movq   $0x0,0x40(%rax)
/home/rgesteve/projects/zlib-1.2.11/build/../deflate.c:897
    5910:	mov    -0x8(%rbp),%rax
    5914:	movl   $0x45,0x8(%rax)
/home/rgesteve/projects/zlib-1.2.11/build/../deflate.c:900
    591b:	mov    -0x8(%rbp),%rax
    591f:	mov    0x8(%rax),%eax
    5922:	cmp    $0x45,%eax
    5925:	jne    5b5b <deflate+0xa53>
/home/rgesteve/projects/zlib-1.2.11/build/../deflate.c:901
    592b:	mov    -0x8(%rbp),%rax
    592f:	mov    0x38(%rax),%rax
    5933:	mov    0x18(%rax),%rax
    5937:	test   %rax,%rax
    593a:	je     5b50 <deflate+0xa48>
/home/rgesteve/projects/zlib-1.2.11/build/../deflate.c:902
    5940:	mov    -0x8(%rbp),%rax
    5944:	mov    0x28(%rax),%rax
    5948:	mov    %rax,-0x20(%rbp)
/home/rgesteve/projects/zlib-1.2.11/build/../deflate.c:903
    594c:	mov    -0x8(%rbp),%rax
    5950:	mov    0x38(%rax),%rax
    5954:	mov    0x20(%rax),%eax
    5957:	movzwl %ax,%edx
    595a:	mov    -0x8(%rbp),%rax
    595e:	mov    0x40(%rax),%rax
    5962:	sub    %eax,%edx
    5964:	mov    %edx,%eax
    5966:	mov    %eax,-0x38(%rbp)
/home/rgesteve/projects/zlib-1.2.11/build/../deflate.c:904
    5969:	jmpq   5a7c <deflate+0x974>
/home/rgesteve/projects/zlib-1.2.11/build/../deflate.c:905
    596e:	mov    -0x8(%rbp),%rax
    5972:	mov    0x18(%rax),%rax
    5976:	mov    %eax,%edx
    5978:	mov    -0x8(%rbp),%rax
    597c:	mov    0x28(%rax),%rax
    5980:	sub    %eax,%edx
    5982:	mov    %edx,%eax
    5984:	mov    %eax,-0x30(%rbp)
/home/rgesteve/projects/zlib-1.2.11/build/../deflate.c:906
    5987:	mov    -0x30(%rbp),%eax
/home/rgesteve/projects/zlib-1.2.11/build/../deflate.c:907
    598a:	mov    -0x8(%rbp),%rdx
    598e:	mov    0x38(%rdx),%rdx
    5992:	mov    0x18(%rdx),%rcx
    5996:	mov    -0x8(%rbp),%rdx
    599a:	mov    0x40(%rdx),%rdx
    599e:	lea    (%rcx,%rdx,1),%rsi
/home/rgesteve/projects/zlib-1.2.11/build/../deflate.c:906
    59a2:	mov    -0x8(%rbp),%rdx
    59a6:	mov    0x10(%rdx),%rcx
    59aa:	mov    -0x8(%rbp),%rdx
    59ae:	mov    0x28(%rdx),%rdx
    59b2:	add    %rdx,%rcx
    59b5:	mov    %rax,%rdx
    59b8:	mov    %rcx,%rdi
    59bb:	callq  2210 <memcpy@plt>
/home/rgesteve/projects/zlib-1.2.11/build/../deflate.c:908
    59c0:	mov    -0x8(%rbp),%rax
    59c4:	mov    0x18(%rax),%rdx
    59c8:	mov    -0x8(%rbp),%rax
    59cc:	mov    %rdx,0x28(%rax)
/home/rgesteve/projects/zlib-1.2.11/build/../deflate.c:909
    59d0:	mov    -0x8(%rbp),%rax
    59d4:	mov    0x38(%rax),%rax
    59d8:	mov    0x44(%rax),%eax
    59db:	test   %eax,%eax
    59dd:	je     5a2a <deflate+0x922>
/home/rgesteve/projects/zlib-1.2.11/build/../deflate.c:909 (discriminator 1)
    59df:	mov    -0x8(%rbp),%rax
    59e3:	mov    0x28(%rax),%rax
    59e7:	cmp    %rax,-0x20(%rbp)
    59eb:	jae    5a2a <deflate+0x922>
/home/rgesteve/projects/zlib-1.2.11/build/../deflate.c:909 (discriminator 2)
    59ed:	mov    -0x8(%rbp),%rax
    59f1:	mov    0x28(%rax),%rax
    59f5:	mov    %eax,%edx
    59f7:	mov    -0x20(%rbp),%rax
    59fb:	sub    %eax,%edx
    59fd:	mov    -0x8(%rbp),%rax
    5a01:	mov    0x10(%rax),%rcx
    5a05:	mov    -0x20(%rbp),%rax
    5a09:	add    %rax,%rcx
    5a0c:	mov    -0x48(%rbp),%rax
    5a10:	mov    0x60(%rax),%rax
    5a14:	mov    %rcx,%rsi
    5a17:	mov    %rax,%rdi
    5a1a:	callq  2110 <crc32@plt>
    5a1f:	mov    %rax,%rdx
    5a22:	mov    -0x48(%rbp),%rax
    5a26:	mov    %rdx,0x60(%rax)
/home/rgesteve/projects/zlib-1.2.11/build/../deflate.c:910
    5a2a:	mov    -0x8(%rbp),%rax
    5a2e:	mov    0x40(%rax),%rdx
    5a32:	mov    -0x30(%rbp),%eax
    5a35:	add    %rax,%rdx
    5a38:	mov    -0x8(%rbp),%rax
    5a3c:	mov    %rdx,0x40(%rax)
/home/rgesteve/projects/zlib-1.2.11/build/../deflate.c:911
    5a40:	mov    -0x48(%rbp),%rax
    5a44:	mov    %rax,%rdi
    5a47:	callq  500e <flush_pending>
/home/rgesteve/projects/zlib-1.2.11/build/../deflate.c:912
    5a4c:	mov    -0x8(%rbp),%rax
    5a50:	mov    0x28(%rax),%rax
    5a54:	test   %rax,%rax
    5a57:	je     5a6e <deflate+0x966>
/home/rgesteve/projects/zlib-1.2.11/build/../deflate.c:913
    5a59:	mov    -0x8(%rbp),%rax
    5a5d:	movl   $0xffffffff,0x4c(%rax)
/home/rgesteve/projects/zlib-1.2.11/build/../deflate.c:914
    5a64:	mov    $0x0,%eax
    5a69:	jmpq   63eb <deflate+0x12e3>
/home/rgesteve/projects/zlib-1.2.11/build/../deflate.c:916
    5a6e:	movq   $0x0,-0x20(%rbp)
/home/rgesteve/projects/zlib-1.2.11/build/../deflate.c:917
    5a76:	mov    -0x30(%rbp),%eax
    5a79:	sub    %eax,-0x38(%rbp)
/home/rgesteve/projects/zlib-1.2.11/build/../deflate.c:904
    5a7c:	mov    -0x8(%rbp),%rax
    5a80:	mov    0x28(%rax),%rdx
    5a84:	mov    -0x38(%rbp),%eax
    5a87:	add    %rax,%rdx
    5a8a:	mov    -0x8(%rbp),%rax
    5a8e:	mov    0x18(%rax),%rax
    5a92:	cmp    %rax,%rdx
    5a95:	ja     596e <deflate+0x866>
/home/rgesteve/projects/zlib-1.2.11/build/../deflate.c:919
    5a9b:	mov    -0x38(%rbp),%eax
/home/rgesteve/projects/zlib-1.2.11/build/../deflate.c:920
    5a9e:	mov    -0x8(%rbp),%rdx
    5aa2:	mov    0x38(%rdx),%rdx
    5aa6:	mov    0x18(%rdx),%rcx
    5aaa:	mov    -0x8(%rbp),%rdx
    5aae:	mov    0x40(%rdx),%rdx
    5ab2:	lea    (%rcx,%rdx,1),%rsi
/home/rgesteve/projects/zlib-1.2.11/build/../deflate.c:919
    5ab6:	mov    -0x8(%rbp),%rdx
    5aba:	mov    0x10(%rdx),%rcx
    5abe:	mov    -0x8(%rbp),%rdx
    5ac2:	mov    0x28(%rdx),%rdx
    5ac6:	add    %rdx,%rcx
    5ac9:	mov    %rax,%rdx
    5acc:	mov    %rcx,%rdi
    5acf:	callq  2210 <memcpy@plt>
/home/rgesteve/projects/zlib-1.2.11/build/../deflate.c:921
    5ad4:	mov    -0x8(%rbp),%rax
    5ad8:	mov    0x28(%rax),%rdx
    5adc:	mov    -0x38(%rbp),%eax
    5adf:	add    %rax,%rdx
    5ae2:	mov    -0x8(%rbp),%rax
    5ae6:	mov    %rdx,0x28(%rax)
/home/rgesteve/projects/zlib-1.2.11/build/../deflate.c:922
    5aea:	mov    -0x8(%rbp),%rax
    5aee:	mov    0x38(%rax),%rax
    5af2:	mov    0x44(%rax),%eax
    5af5:	test   %eax,%eax
    5af7:	je     5b44 <deflate+0xa3c>
/home/rgesteve/projects/zlib-1.2.11/build/../deflate.c:922 (discriminator 1)
    5af9:	mov    -0x8(%rbp),%rax
    5afd:	mov    0x28(%rax),%rax
    5b01:	cmp    %rax,-0x20(%rbp)
    5b05:	jae    5b44 <deflate+0xa3c>
/home/rgesteve/projects/zlib-1.2.11/build/../deflate.c:922 (discriminator 2)
    5b07:	mov    -0x8(%rbp),%rax
    5b0b:	mov    0x28(%rax),%rax
    5b0f:	mov    %eax,%edx
    5b11:	mov    -0x20(%rbp),%rax
    5b15:	sub    %eax,%edx
    5b17:	mov    -0x8(%rbp),%rax
    5b1b:	mov    0x10(%rax),%rcx
    5b1f:	mov    -0x20(%rbp),%rax
    5b23:	add    %rax,%rcx
    5b26:	mov    -0x48(%rbp),%rax
    5b2a:	mov    0x60(%rax),%rax
    5b2e:	mov    %rcx,%rsi
    5b31:	mov    %rax,%rdi
    5b34:	callq  2110 <crc32@plt>
    5b39:	mov    %rax,%rdx
    5b3c:	mov    -0x48(%rbp),%rax
    5b40:	mov    %rdx,0x60(%rax)
/home/rgesteve/projects/zlib-1.2.11/build/../deflate.c:923
    5b44:	mov    -0x8(%rbp),%rax
    5b48:	movq   $0x0,0x40(%rax)
/home/rgesteve/projects/zlib-1.2.11/build/../deflate.c:925
    5b50:	mov    -0x8(%rbp),%rax
    5b54:	movl   $0x49,0x8(%rax)
/home/rgesteve/projects/zlib-1.2.11/build/../deflate.c:927
    5b5b:	mov    -0x8(%rbp),%rax
    5b5f:	mov    0x8(%rax),%eax
    5b62:	cmp    $0x49,%eax
    5b65:	jne    5d00 <deflate+0xbf8>
/home/rgesteve/projects/zlib-1.2.11/build/../deflate.c:928
    5b6b:	mov    -0x8(%rbp),%rax
    5b6f:	mov    0x38(%rax),%rax
    5b73:	mov    0x28(%rax),%rax
    5b77:	test   %rax,%rax
    5b7a:	je     5cf5 <deflate+0xbed>
/home/rgesteve/projects/zlib-1.2.11/build/../deflate.c:929
    5b80:	mov    -0x8(%rbp),%rax
    5b84:	mov    0x28(%rax),%rax
    5b88:	mov    %rax,-0x18(%rbp)
/home/rgesteve/projects/zlib-1.2.11/build/../deflate.c:932
    5b8c:	mov    -0x8(%rbp),%rax
    5b90:	mov    0x28(%rax),%rdx
    5b94:	mov    -0x8(%rbp),%rax
    5b98:	mov    0x18(%rax),%rax
    5b9c:	cmp    %rax,%rdx
    5b9f:	jne    5c35 <deflate+0xb2d>
/home/rgesteve/projects/zlib-1.2.11/build/../deflate.c:933
    5ba5:	mov    -0x8(%rbp),%rax
    5ba9:	mov    0x38(%rax),%rax
    5bad:	mov    0x44(%rax),%eax
    5bb0:	test   %eax,%eax
    5bb2:	je     5bff <deflate+0xaf7>
/home/rgesteve/projects/zlib-1.2.11/build/../deflate.c:933 (discriminator 1)
    5bb4:	mov    -0x8(%rbp),%rax
    5bb8:	mov    0x28(%rax),%rax
    5bbc:	cmp    %rax,-0x18(%rbp)
    5bc0:	jae    5bff <deflate+0xaf7>
/home/rgesteve/projects/zlib-1.2.11/build/../deflate.c:933 (discriminator 2)
    5bc2:	mov    -0x8(%rbp),%rax
    5bc6:	mov    0x28(%rax),%rax
    5bca:	mov    %eax,%edx
    5bcc:	mov    -0x18(%rbp),%rax
    5bd0:	sub    %eax,%edx
    5bd2:	mov    -0x8(%rbp),%rax
    5bd6:	mov    0x10(%rax),%rcx
    5bda:	mov    -0x18(%rbp),%rax
    5bde:	add    %rax,%rcx
    5be1:	mov    -0x48(%rbp),%rax
    5be5:	mov    0x60(%rax),%rax
    5be9:	mov    %rcx,%rsi
    5bec:	mov    %rax,%rdi
    5bef:	callq  2110 <crc32@plt>
    5bf4:	mov    %rax,%rdx
    5bf7:	mov    -0x48(%rbp),%rax
    5bfb:	mov    %rdx,0x60(%rax)
/home/rgesteve/projects/zlib-1.2.11/build/../deflate.c:934
    5bff:	mov    -0x48(%rbp),%rax
    5c03:	mov    %rax,%rdi
    5c06:	callq  500e <flush_pending>
/home/rgesteve/projects/zlib-1.2.11/build/../deflate.c:935
    5c0b:	mov    -0x8(%rbp),%rax
    5c0f:	mov    0x28(%rax),%rax
    5c13:	test   %rax,%rax
    5c16:	je     5c2d <deflate+0xb25>
/home/rgesteve/projects/zlib-1.2.11/build/../deflate.c:936
    5c18:	mov    -0x8(%rbp),%rax
    5c1c:	movl   $0xffffffff,0x4c(%rax)
/home/rgesteve/projects/zlib-1.2.11/build/../deflate.c:937
    5c23:	mov    $0x0,%eax
    5c28:	jmpq   63eb <deflate+0x12e3>
/home/rgesteve/projects/zlib-1.2.11/build/../deflate.c:939
    5c2d:	movq   $0x0,-0x18(%rbp)
/home/rgesteve/projects/zlib-1.2.11/build/../deflate.c:941
    5c35:	mov    -0x8(%rbp),%rax
    5c39:	mov    0x38(%rax),%rax
    5c3d:	mov    0x28(%rax),%rsi
    5c41:	mov    -0x8(%rbp),%rax
    5c45:	mov    0x40(%rax),%rax
    5c49:	lea    0x1(%rax),%rcx
    5c4d:	mov    -0x8(%rbp),%rdx
    5c51:	mov    %rcx,0x40(%rdx)
    5c55:	add    %rsi,%rax
    5c58:	movzbl (%rax),%eax
    5c5b:	movzbl %al,%eax
    5c5e:	mov    %eax,-0x2c(%rbp)
/home/rgesteve/projects/zlib-1.2.11/build/../deflate.c:942
    5c61:	mov    -0x8(%rbp),%rax
    5c65:	mov    0x10(%rax),%rsi
    5c69:	mov    -0x8(%rbp),%rax
    5c6d:	mov    0x28(%rax),%rax
    5c71:	lea    0x1(%rax),%rcx
    5c75:	mov    -0x8(%rbp),%rdx
    5c79:	mov    %rcx,0x28(%rdx)
    5c7d:	add    %rsi,%rax
    5c80:	mov    -0x2c(%rbp),%edx
    5c83:	mov    %dl,(%rax)
/home/rgesteve/projects/zlib-1.2.11/build/../deflate.c:943
    5c85:	cmpl   $0x0,-0x2c(%rbp)
    5c89:	jne    5b8c <deflate+0xa84>
/home/rgesteve/projects/zlib-1.2.11/build/../deflate.c:944
    5c8f:	mov    -0x8(%rbp),%rax
    5c93:	mov    0x38(%rax),%rax
    5c97:	mov    0x44(%rax),%eax
    5c9a:	test   %eax,%eax
    5c9c:	je     5ce9 <deflate+0xbe1>
/home/rgesteve/projects/zlib-1.2.11/build/../deflate.c:944 (discriminator 1)
    5c9e:	mov    -0x8(%rbp),%rax
    5ca2:	mov    0x28(%rax),%rax
    5ca6:	cmp    %rax,-0x18(%rbp)
    5caa:	jae    5ce9 <deflate+0xbe1>
/home/rgesteve/projects/zlib-1.2.11/build/../deflate.c:944 (discriminator 2)
    5cac:	mov    -0x8(%rbp),%rax
    5cb0:	mov    0x28(%rax),%rax
    5cb4:	mov    %eax,%edx
    5cb6:	mov    -0x18(%rbp),%rax
    5cba:	sub    %eax,%edx
    5cbc:	mov    -0x8(%rbp),%rax
    5cc0:	mov    0x10(%rax),%rcx
    5cc4:	mov    -0x18(%rbp),%rax
    5cc8:	add    %rax,%rcx
    5ccb:	mov    -0x48(%rbp),%rax
    5ccf:	mov    0x60(%rax),%rax
    5cd3:	mov    %rcx,%rsi
    5cd6:	mov    %rax,%rdi
    5cd9:	callq  2110 <crc32@plt>
    5cde:	mov    %rax,%rdx
    5ce1:	mov    -0x48(%rbp),%rax
    5ce5:	mov    %rdx,0x60(%rax)
/home/rgesteve/projects/zlib-1.2.11/build/../deflate.c:945
    5ce9:	mov    -0x8(%rbp),%rax
    5ced:	movq   $0x0,0x40(%rax)
/home/rgesteve/projects/zlib-1.2.11/build/../deflate.c:947
    5cf5:	mov    -0x8(%rbp),%rax
    5cf9:	movl   $0x5b,0x8(%rax)
/home/rgesteve/projects/zlib-1.2.11/build/../deflate.c:949
    5d00:	mov    -0x8(%rbp),%rax
    5d04:	mov    0x8(%rax),%eax
    5d07:	cmp    $0x5b,%eax
    5d0a:	jne    5e99 <deflate+0xd91>
/home/rgesteve/projects/zlib-1.2.11/build/../deflate.c:950
    5d10:	mov    -0x8(%rbp),%rax
    5d14:	mov    0x38(%rax),%rax
    5d18:	mov    0x38(%rax),%rax
    5d1c:	test   %rax,%rax
    5d1f:	je     5e8e <deflate+0xd86>
/home/rgesteve/projects/zlib-1.2.11/build/../deflate.c:951
    5d25:	mov    -0x8(%rbp),%rax
    5d29:	mov    0x28(%rax),%rax
    5d2d:	mov    %rax,-0x10(%rbp)
/home/rgesteve/projects/zlib-1.2.11/build/../deflate.c:954
    5d31:	mov    -0x8(%rbp),%rax
    5d35:	mov    0x28(%rax),%rdx
    5d39:	mov    -0x8(%rbp),%rax
    5d3d:	mov    0x18(%rax),%rax
    5d41:	cmp    %rax,%rdx
    5d44:	jne    5dda <deflate+0xcd2>
/home/rgesteve/projects/zlib-1.2.11/build/../deflate.c:955
    5d4a:	mov    -0x8(%rbp),%rax
    5d4e:	mov    0x38(%rax),%rax
    5d52:	mov    0x44(%rax),%eax
    5d55:	test   %eax,%eax
    5d57:	je     5da4 <deflate+0xc9c>
/home/rgesteve/projects/zlib-1.2.11/build/../deflate.c:955 (discriminator 1)
    5d59:	mov    -0x8(%rbp),%rax
    5d5d:	mov    0x28(%rax),%rax
    5d61:	cmp    %rax,-0x10(%rbp)
    5d65:	jae    5da4 <deflate+0xc9c>
/home/rgesteve/projects/zlib-1.2.11/build/../deflate.c:955 (discriminator 2)
    5d67:	mov    -0x8(%rbp),%rax
    5d6b:	mov    0x28(%rax),%rax
    5d6f:	mov    %eax,%edx
    5d71:	mov    -0x10(%rbp),%rax
    5d75:	sub    %eax,%edx
    5d77:	mov    -0x8(%rbp),%rax
    5d7b:	mov    0x10(%rax),%rcx
    5d7f:	mov    -0x10(%rbp),%rax
    5d83:	add    %rax,%rcx
    5d86:	mov    -0x48(%rbp),%rax
    5d8a:	mov    0x60(%rax),%rax
    5d8e:	mov    %rcx,%rsi
    5d91:	mov    %rax,%rdi
    5d94:	callq  2110 <crc32@plt>
    5d99:	mov    %rax,%rdx
    5d9c:	mov    -0x48(%rbp),%rax
    5da0:	mov    %rdx,0x60(%rax)
/home/rgesteve/projects/zlib-1.2.11/build/../deflate.c:956
    5da4:	mov    -0x48(%rbp),%rax
    5da8:	mov    %rax,%rdi
    5dab:	callq  500e <flush_pending>
/home/rgesteve/projects/zlib-1.2.11/build/../deflate.c:957
    5db0:	mov    -0x8(%rbp),%rax
    5db4:	mov    0x28(%rax),%rax
    5db8:	test   %rax,%rax
    5dbb:	je     5dd2 <deflate+0xcca>
/home/rgesteve/projects/zlib-1.2.11/build/../deflate.c:958
    5dbd:	mov    -0x8(%rbp),%rax
    5dc1:	movl   $0xffffffff,0x4c(%rax)
/home/rgesteve/projects/zlib-1.2.11/build/../deflate.c:959
    5dc8:	mov    $0x0,%eax
    5dcd:	jmpq   63eb <deflate+0x12e3>
/home/rgesteve/projects/zlib-1.2.11/build/../deflate.c:961
    5dd2:	movq   $0x0,-0x10(%rbp)
/home/rgesteve/projects/zlib-1.2.11/build/../deflate.c:963
    5dda:	mov    -0x8(%rbp),%rax
    5dde:	mov    0x38(%rax),%rax
    5de2:	mov    0x38(%rax),%rsi
    5de6:	mov    -0x8(%rbp),%rax
    5dea:	mov    0x40(%rax),%rax
    5dee:	lea    0x1(%rax),%rcx
    5df2:	mov    -0x8(%rbp),%rdx
    5df6:	mov    %rcx,0x40(%rdx)
    5dfa:	add    %rsi,%rax
    5dfd:	movzbl (%rax),%eax
    5e00:	movzbl %al,%eax
    5e03:	mov    %eax,-0x28(%rbp)
/home/rgesteve/projects/zlib-1.2.11/build/../deflate.c:964
    5e06:	mov    -0x8(%rbp),%rax
    5e0a:	mov    0x10(%rax),%rsi
    5e0e:	mov    -0x8(%rbp),%rax
    5e12:	mov    0x28(%rax),%rax
    5e16:	lea    0x1(%rax),%rcx
    5e1a:	mov    -0x8(%rbp),%rdx
    5e1e:	mov    %rcx,0x28(%rdx)
    5e22:	add    %rsi,%rax
    5e25:	mov    -0x28(%rbp),%edx
    5e28:	mov    %dl,(%rax)
/home/rgesteve/projects/zlib-1.2.11/build/../deflate.c:965
    5e2a:	cmpl   $0x0,-0x28(%rbp)
    5e2e:	jne    5d31 <deflate+0xc29>
/home/rgesteve/projects/zlib-1.2.11/build/../deflate.c:966
    5e34:	mov    -0x8(%rbp),%rax
    5e38:	mov    0x38(%rax),%rax
    5e3c:	mov    0x44(%rax),%eax
    5e3f:	test   %eax,%eax
    5e41:	je     5e8e <deflate+0xd86>
/home/rgesteve/projects/zlib-1.2.11/build/../deflate.c:966 (discriminator 1)
    5e43:	mov    -0x8(%rbp),%rax
    5e47:	mov    0x28(%rax),%rax
    5e4b:	cmp    %rax,-0x10(%rbp)
    5e4f:	jae    5e8e <deflate+0xd86>
/home/rgesteve/projects/zlib-1.2.11/build/../deflate.c:966 (discriminator 2)
    5e51:	mov    -0x8(%rbp),%rax
    5e55:	mov    0x28(%rax),%rax
    5e59:	mov    %eax,%edx
    5e5b:	mov    -0x10(%rbp),%rax
    5e5f:	sub    %eax,%edx
    5e61:	mov    -0x8(%rbp),%rax
    5e65:	mov    0x10(%rax),%rcx
    5e69:	mov    -0x10(%rbp),%rax
    5e6d:	add    %rax,%rcx
    5e70:	mov    -0x48(%rbp),%rax
    5e74:	mov    0x60(%rax),%rax
    5e78:	mov    %rcx,%rsi
    5e7b:	mov    %rax,%rdi
    5e7e:	callq  2110 <crc32@plt>
    5e83:	mov    %rax,%rdx
    5e86:	mov    -0x48(%rbp),%rax
    5e8a:	mov    %rdx,0x60(%rax)
/home/rgesteve/projects/zlib-1.2.11/build/../deflate.c:968
    5e8e:	mov    -0x8(%rbp),%rax
    5e92:	movl   $0x67,0x8(%rax)
/home/rgesteve/projects/zlib-1.2.11/build/../deflate.c:970
    5e99:	mov    -0x8(%rbp),%rax
    5e9d:	mov    0x8(%rax),%eax
    5ea0:	cmp    $0x67,%eax
    5ea3:	jne    5fb8 <deflate+0xeb0>
/home/rgesteve/projects/zlib-1.2.11/build/../deflate.c:971
    5ea9:	mov    -0x8(%rbp),%rax
    5ead:	mov    0x38(%rax),%rax
    5eb1:	mov    0x44(%rax),%eax
    5eb4:	test   %eax,%eax
    5eb6:	je     5f7f <deflate+0xe77>
/home/rgesteve/projects/zlib-1.2.11/build/../deflate.c:972
    5ebc:	mov    -0x8(%rbp),%rax
    5ec0:	mov    0x28(%rax),%rax
    5ec4:	lea    0x2(%rax),%rdx
    5ec8:	mov    -0x8(%rbp),%rax
    5ecc:	mov    0x18(%rax),%rax
    5ed0:	cmp    %rax,%rdx
    5ed3:	jbe    5f03 <deflate+0xdfb>
/home/rgesteve/projects/zlib-1.2.11/build/../deflate.c:973
    5ed5:	mov    -0x48(%rbp),%rax
    5ed9:	mov    %rax,%rdi
    5edc:	callq  500e <flush_pending>
/home/rgesteve/projects/zlib-1.2.11/build/../deflate.c:974
    5ee1:	mov    -0x8(%rbp),%rax
    5ee5:	mov    0x28(%rax),%rax
    5ee9:	test   %rax,%rax
    5eec:	je     5f03 <deflate+0xdfb>
/home/rgesteve/projects/zlib-1.2.11/build/../deflate.c:975
    5eee:	mov    -0x8(%rbp),%rax
    5ef2:	movl   $0xffffffff,0x4c(%rax)
/home/rgesteve/projects/zlib-1.2.11/build/../deflate.c:976
    5ef9:	mov    $0x0,%eax
    5efe:	jmpq   63eb <deflate+0x12e3>
/home/rgesteve/projects/zlib-1.2.11/build/../deflate.c:979
    5f03:	mov    -0x48(%rbp),%rax
    5f07:	mov    0x60(%rax),%rsi
    5f0b:	mov    -0x8(%rbp),%rax
    5f0f:	mov    0x10(%rax),%rdi
    5f13:	mov    -0x8(%rbp),%rax
    5f17:	mov    0x28(%rax),%rax
    5f1b:	lea    0x1(%rax),%rcx
    5f1f:	mov    -0x8(%rbp),%rdx
    5f23:	mov    %rcx,0x28(%rdx)
    5f27:	add    %rdi,%rax
    5f2a:	mov    %esi,%edx
    5f2c:	mov    %dl,(%rax)
/home/rgesteve/projects/zlib-1.2.11/build/../deflate.c:980
    5f2e:	mov    -0x48(%rbp),%rax
    5f32:	mov    0x60(%rax),%rax
    5f36:	shr    $0x8,%rax
    5f3a:	mov    %rax,%rdi
    5f3d:	mov    -0x8(%rbp),%rax
    5f41:	mov    0x10(%rax),%rsi
    5f45:	mov    -0x8(%rbp),%rax
    5f49:	mov    0x28(%rax),%rax
    5f4d:	lea    0x1(%rax),%rcx
    5f51:	mov    -0x8(%rbp),%rdx
    5f55:	mov    %rcx,0x28(%rdx)
    5f59:	add    %rsi,%rax
    5f5c:	mov    %edi,%edx
    5f5e:	mov    %dl,(%rax)
/home/rgesteve/projects/zlib-1.2.11/build/../deflate.c:981
    5f60:	mov    $0x0,%edx
    5f65:	mov    $0x0,%esi
    5f6a:	mov    $0x0,%edi
    5f6f:	callq  2110 <crc32@plt>
    5f74:	mov    %rax,%rdx
    5f77:	mov    -0x48(%rbp),%rax
    5f7b:	mov    %rdx,0x60(%rax)
/home/rgesteve/projects/zlib-1.2.11/build/../deflate.c:983
    5f7f:	mov    -0x8(%rbp),%rax
    5f83:	movl   $0x71,0x8(%rax)
/home/rgesteve/projects/zlib-1.2.11/build/../deflate.c:986
    5f8a:	mov    -0x48(%rbp),%rax
    5f8e:	mov    %rax,%rdi
    5f91:	callq  500e <flush_pending>
/home/rgesteve/projects/zlib-1.2.11/build/../deflate.c:987
    5f96:	mov    -0x8(%rbp),%rax
    5f9a:	mov    0x28(%rax),%rax
    5f9e:	test   %rax,%rax
    5fa1:	je     5fb8 <deflate+0xeb0>
/home/rgesteve/projects/zlib-1.2.11/build/../deflate.c:988
    5fa3:	mov    -0x8(%rbp),%rax
    5fa7:	movl   $0xffffffff,0x4c(%rax)
/home/rgesteve/projects/zlib-1.2.11/build/../deflate.c:989
    5fae:	mov    $0x0,%eax
    5fb3:	jmpq   63eb <deflate+0x12e3>
/home/rgesteve/projects/zlib-1.2.11/build/../deflate.c:996
    5fb8:	mov    -0x48(%rbp),%rax
    5fbc:	mov    0x8(%rax),%eax
    5fbf:	test   %eax,%eax
    5fc1:	jne    5fed <deflate+0xee5>
/home/rgesteve/projects/zlib-1.2.11/build/../deflate.c:996 (discriminator 1)
    5fc3:	mov    -0x8(%rbp),%rax
    5fc7:	mov    0xb4(%rax),%eax
    5fcd:	test   %eax,%eax
    5fcf:	jne    5fed <deflate+0xee5>
/home/rgesteve/projects/zlib-1.2.11/build/../deflate.c:996 (discriminator 2)
    5fd1:	cmpl   $0x0,-0x4c(%rbp)
    5fd5:	je     61c3 <deflate+0x10bb>
/home/rgesteve/projects/zlib-1.2.11/build/../deflate.c:997
    5fdb:	mov    -0x8(%rbp),%rax
    5fdf:	mov    0x8(%rax),%eax
    5fe2:	cmp    $0x29a,%eax
    5fe7:	je     61c3 <deflate+0x10bb>
/home/rgesteve/projects/zlib-1.2.11/build/../deflate.c:1000
    5fed:	mov    -0x8(%rbp),%rax
    5ff1:	mov    0xc4(%rax),%eax
    5ff7:	test   %eax,%eax
    5ff9:	jne    600e <deflate+0xf06>
/home/rgesteve/projects/zlib-1.2.11/build/../deflate.c:1000 (discriminator 1)
    5ffb:	mov    -0x4c(%rbp),%edx
    5ffe:	mov    -0x8(%rbp),%rax
    6002:	mov    %edx,%esi
    6004:	mov    %rax,%rdi
    6007:	callq  7265 <deflate_stored>
    600c:	jmp    607e <deflate+0xf76>
/home/rgesteve/projects/zlib-1.2.11/build/../deflate.c:1001 (discriminator 2)
    600e:	mov    -0x8(%rbp),%rax
    6012:	mov    0xc8(%rax),%eax
/home/rgesteve/projects/zlib-1.2.11/build/../deflate.c:1000 (discriminator 2)
    6018:	cmp    $0x2,%eax
    601b:	jne    6030 <deflate+0xf28>
/home/rgesteve/projects/zlib-1.2.11/build/../deflate.c:1000 (discriminator 4)
    601d:	mov    -0x4c(%rbp),%edx
    6020:	mov    -0x8(%rbp),%rax
    6024:	mov    %edx,%esi
    6026:	mov    %rax,%rdi
    6029:	callq  93f7 <deflate_huff>
    602e:	jmp    607e <deflate+0xf76>
/home/rgesteve/projects/zlib-1.2.11/build/../deflate.c:1002 (discriminator 5)
    6030:	mov    -0x8(%rbp),%rax
    6034:	mov    0xc8(%rax),%eax
/home/rgesteve/projects/zlib-1.2.11/build/../deflate.c:1000 (discriminator 5)
    603a:	cmp    $0x3,%eax
    603d:	jne    6052 <deflate+0xf4a>
/home/rgesteve/projects/zlib-1.2.11/build/../deflate.c:1000 (discriminator 7)
    603f:	mov    -0x4c(%rbp),%edx
    6042:	mov    -0x8(%rbp),%rax
    6046:	mov    %edx,%esi
    6048:	mov    %rax,%rdi
    604b:	callq  8d24 <deflate_rle>
    6050:	jmp    607e <deflate+0xf76>
/home/rgesteve/projects/zlib-1.2.11/build/../deflate.c:1003 (discriminator 8)
    6052:	mov    -0x8(%rbp),%rax
    6056:	mov    0xc4(%rax),%eax
    605c:	cltq   
    605e:	shl    $0x4,%rax
    6062:	mov    %rax,%rdx
    6065:	lea    0x216c3c(%rip),%rax        # 21cca8 <configuration_table+0x8>
    606c:	mov    (%rdx,%rax,1),%rax
/home/rgesteve/projects/zlib-1.2.11/build/../deflate.c:1000 (discriminator 8)
    6070:	mov    -0x4c(%rbp),%ecx
    6073:	mov    -0x8(%rbp),%rdx
    6077:	mov    %ecx,%esi
    6079:	mov    %rdx,%rdi
    607c:	callq  *%rax
/home/rgesteve/projects/zlib-1.2.11/build/../deflate.c:1000 (discriminator 12)
    607e:	mov    %eax,-0x24(%rbp)
/home/rgesteve/projects/zlib-1.2.11/build/../deflate.c:1005 (discriminator 12)
    6081:	cmpl   $0x2,-0x24(%rbp)
    6085:	je     608d <deflate+0xf85>
/home/rgesteve/projects/zlib-1.2.11/build/../deflate.c:1005 (discriminator 1)
    6087:	cmpl   $0x3,-0x24(%rbp)
    608b:	jne    6098 <deflate+0xf90>
/home/rgesteve/projects/zlib-1.2.11/build/../deflate.c:1006
    608d:	mov    -0x8(%rbp),%rax
    6091:	movl   $0x29a,0x8(%rax)
/home/rgesteve/projects/zlib-1.2.11/build/../deflate.c:1008
    6098:	cmpl   $0x0,-0x24(%rbp)
    609c:	je     60a4 <deflate+0xf9c>
/home/rgesteve/projects/zlib-1.2.11/build/../deflate.c:1008 (discriminator 1)
    609e:	cmpl   $0x2,-0x24(%rbp)
    60a2:	jne    60c4 <deflate+0xfbc>
/home/rgesteve/projects/zlib-1.2.11/build/../deflate.c:1009
    60a4:	mov    -0x48(%rbp),%rax
    60a8:	mov    0x20(%rax),%eax
    60ab:	test   %eax,%eax
    60ad:	jne    60ba <deflate+0xfb2>
/home/rgesteve/projects/zlib-1.2.11/build/../deflate.c:1010
    60af:	mov    -0x8(%rbp),%rax
    60b3:	movl   $0xffffffff,0x4c(%rax)
/home/rgesteve/projects/zlib-1.2.11/build/../deflate.c:1012
    60ba:	mov    $0x0,%eax
    60bf:	jmpq   63eb <deflate+0x12e3>
/home/rgesteve/projects/zlib-1.2.11/build/../deflate.c:1021
    60c4:	cmpl   $0x1,-0x24(%rbp)
    60c8:	jne    61c3 <deflate+0x10bb>
/home/rgesteve/projects/zlib-1.2.11/build/../deflate.c:1022
    60ce:	cmpl   $0x1,-0x4c(%rbp)
    60d2:	jne    60e5 <deflate+0xfdd>
/home/rgesteve/projects/zlib-1.2.11/build/../deflate.c:1023
    60d4:	mov    -0x8(%rbp),%rax
    60d8:	mov    %rax,%rdi
    60db:	callq  14c01 <_tr_align>
    60e0:	jmpq   6197 <deflate+0x108f>
/home/rgesteve/projects/zlib-1.2.11/build/../deflate.c:1024
    60e5:	cmpl   $0x5,-0x4c(%rbp)
    60e9:	je     6197 <deflate+0x108f>
/home/rgesteve/projects/zlib-1.2.11/build/../deflate.c:1025
    60ef:	mov    -0x8(%rbp),%rax
    60f3:	mov    $0x0,%ecx
    60f8:	mov    $0x0,%edx
    60fd:	mov    $0x0,%esi
    6102:	mov    %rax,%rdi
    6105:	callq  14986 <_tr_stored_block>
/home/rgesteve/projects/zlib-1.2.11/build/../deflate.c:1029
    610a:	cmpl   $0x3,-0x4c(%rbp)
    610e:	jne    6197 <deflate+0x108f>
/home/rgesteve/projects/zlib-1.2.11/build/../deflate.c:1030
    6114:	mov    -0x8(%rbp),%rax
    6118:	mov    0x78(%rax),%rdx
    611c:	mov    -0x8(%rbp),%rax
    6120:	mov    0x84(%rax),%eax
    6126:	sub    $0x1,%eax
    6129:	mov    %eax,%eax
    612b:	add    %rax,%rax
    612e:	add    %rdx,%rax
    6131:	movw   $0x0,(%rax)
    6136:	mov    -0x8(%rbp),%rax
    613a:	mov    0x84(%rax),%eax
    6140:	sub    $0x1,%eax
    6143:	mov    %eax,%eax
    6145:	lea    (%rax,%rax,1),%rdx
    6149:	mov    -0x8(%rbp),%rax
    614d:	mov    0x78(%rax),%rax
    6151:	mov    $0x0,%esi
    6156:	mov    %rax,%rdi
    6159:	callq  2190 <memset@plt>
/home/rgesteve/projects/zlib-1.2.11/build/../deflate.c:1031
    615e:	mov    -0x8(%rbp),%rax
    6162:	mov    0xb4(%rax),%eax
    6168:	test   %eax,%eax
    616a:	jne    6197 <deflate+0x108f>
/home/rgesteve/projects/zlib-1.2.11/build/../deflate.c:1032
    616c:	mov    -0x8(%rbp),%rax
    6170:	movl   $0x0,0xac(%rax)
/home/rgesteve/projects/zlib-1.2.11/build/../deflate.c:1033
    617a:	mov    -0x8(%rbp),%rax
    617e:	movq   $0x0,0x98(%rax)
/home/rgesteve/projects/zlib-1.2.11/build/../deflate.c:1034
    6189:	mov    -0x8(%rbp),%rax
    618d:	movl   $0x0,0x172c(%rax)
/home/rgesteve/projects/zlib-1.2.11/build/../deflate.c:1038
    6197:	mov    -0x48(%rbp),%rax
    619b:	mov    %rax,%rdi
    619e:	callq  500e <flush_pending>
/home/rgesteve/projects/zlib-1.2.11/build/../deflate.c:1039
    61a3:	mov    -0x48(%rbp),%rax
    61a7:	mov    0x20(%rax),%eax
    61aa:	test   %eax,%eax
    61ac:	jne    61c3 <deflate+0x10bb>
/home/rgesteve/projects/zlib-1.2.11/build/../deflate.c:1040
    61ae:	mov    -0x8(%rbp),%rax
    61b2:	movl   $0xffffffff,0x4c(%rax)
/home/rgesteve/projects/zlib-1.2.11/build/../deflate.c:1041
    61b9:	mov    $0x0,%eax
    61be:	jmpq   63eb <deflate+0x12e3>
/home/rgesteve/projects/zlib-1.2.11/build/../deflate.c:1046
    61c3:	cmpl   $0x4,-0x4c(%rbp)
    61c7:	je     61d3 <deflate+0x10cb>
/home/rgesteve/projects/zlib-1.2.11/build/../deflate.c:1046 (discriminator 1)
    61c9:	mov    $0x0,%eax
    61ce:	jmpq   63eb <deflate+0x12e3>
/home/rgesteve/projects/zlib-1.2.11/build/../deflate.c:1047
    61d3:	mov    -0x8(%rbp),%rax
    61d7:	mov    0x30(%rax),%eax
    61da:	test   %eax,%eax
    61dc:	jg     61e8 <deflate+0x10e0>
/home/rgesteve/projects/zlib-1.2.11/build/../deflate.c:1047 (discriminator 1)
    61de:	mov    $0x1,%eax
    61e3:	jmpq   63eb <deflate+0x12e3>
/home/rgesteve/projects/zlib-1.2.11/build/../deflate.c:1051
    61e8:	mov    -0x8(%rbp),%rax
    61ec:	mov    0x30(%rax),%eax
    61ef:	cmp    $0x2,%eax
    61f2:	jne    637c <deflate+0x1274>
/home/rgesteve/projects/zlib-1.2.11/build/../deflate.c:1052
    61f8:	mov    -0x48(%rbp),%rax
    61fc:	mov    0x60(%rax),%rsi
    6200:	mov    -0x8(%rbp),%rax
    6204:	mov    0x10(%rax),%rdi
    6208:	mov    -0x8(%rbp),%rax
    620c:	mov    0x28(%rax),%rax
    6210:	lea    0x1(%rax),%rcx
    6214:	mov    -0x8(%rbp),%rdx
    6218:	mov    %rcx,0x28(%rdx)
    621c:	add    %rdi,%rax
    621f:	mov    %esi,%edx
    6221:	mov    %dl,(%rax)
/home/rgesteve/projects/zlib-1.2.11/build/../deflate.c:1053
    6223:	mov    -0x48(%rbp),%rax
    6227:	mov    0x60(%rax),%rax
    622b:	shr    $0x8,%rax
    622f:	mov    %rax,%rdi
    6232:	mov    -0x8(%rbp),%rax
    6236:	mov    0x10(%rax),%rsi
    623a:	mov    -0x8(%rbp),%rax
    623e:	mov    0x28(%rax),%rax
    6242:	lea    0x1(%rax),%rcx
    6246:	mov    -0x8(%rbp),%rdx
    624a:	mov    %rcx,0x28(%rdx)
    624e:	add    %rsi,%rax
    6251:	mov    %edi,%edx
    6253:	mov    %dl,(%rax)
/home/rgesteve/projects/zlib-1.2.11/build/../deflate.c:1054
    6255:	mov    -0x48(%rbp),%rax
    6259:	mov    0x60(%rax),%rax
    625d:	shr    $0x10,%rax
    6261:	mov    %rax,%rdi
    6264:	mov    -0x8(%rbp),%rax
    6268:	mov    0x10(%rax),%rsi
    626c:	mov    -0x8(%rbp),%rax
    6270:	mov    0x28(%rax),%rax
    6274:	lea    0x1(%rax),%rcx
    6278:	mov    -0x8(%rbp),%rdx
    627c:	mov    %rcx,0x28(%rdx)
    6280:	add    %rsi,%rax
    6283:	mov    %edi,%edx
    6285:	mov    %dl,(%rax)
/home/rgesteve/projects/zlib-1.2.11/build/../deflate.c:1055
    6287:	mov    -0x48(%rbp),%rax
    628b:	mov    0x60(%rax),%rax
    628f:	shr    $0x18,%rax
    6293:	mov    %rax,%rdi
    6296:	mov    -0x8(%rbp),%rax
    629a:	mov    0x10(%rax),%rsi
    629e:	mov    -0x8(%rbp),%rax
    62a2:	mov    0x28(%rax),%rax
    62a6:	lea    0x1(%rax),%rcx
    62aa:	mov    -0x8(%rbp),%rdx
    62ae:	mov    %rcx,0x28(%rdx)
    62b2:	add    %rsi,%rax
    62b5:	mov    %edi,%edx
    62b7:	mov    %dl,(%rax)
/home/rgesteve/projects/zlib-1.2.11/build/../deflate.c:1056
    62b9:	mov    -0x48(%rbp),%rax
    62bd:	mov    0x10(%rax),%rsi
    62c1:	mov    -0x8(%rbp),%rax
    62c5:	mov    0x10(%rax),%rdi
    62c9:	mov    -0x8(%rbp),%rax
    62cd:	mov    0x28(%rax),%rax
    62d1:	lea    0x1(%rax),%rcx
    62d5:	mov    -0x8(%rbp),%rdx
    62d9:	mov    %rcx,0x28(%rdx)
    62dd:	add    %rdi,%rax
    62e0:	mov    %esi,%edx
    62e2:	mov    %dl,(%rax)
/home/rgesteve/projects/zlib-1.2.11/build/../deflate.c:1057
    62e4:	mov    -0x48(%rbp),%rax
    62e8:	mov    0x10(%rax),%rax
    62ec:	shr    $0x8,%rax
    62f0:	mov    %rax,%rdi
    62f3:	mov    -0x8(%rbp),%rax
    62f7:	mov    0x10(%rax),%rsi
    62fb:	mov    -0x8(%rbp),%rax
    62ff:	mov    0x28(%rax),%rax
    6303:	lea    0x1(%rax),%rcx
    6307:	mov    -0x8(%rbp),%rdx
    630b:	mov    %rcx,0x28(%rdx)
    630f:	add    %rsi,%rax
    6312:	mov    %edi,%edx
    6314:	mov    %dl,(%rax)
/home/rgesteve/projects/zlib-1.2.11/build/../deflate.c:1058
    6316:	mov    -0x48(%rbp),%rax
    631a:	mov    0x10(%rax),%rax
    631e:	shr    $0x10,%rax
    6322:	mov    %rax,%rdi
    6325:	mov    -0x8(%rbp),%rax
    6329:	mov    0x10(%rax),%rsi
    632d:	mov    -0x8(%rbp),%rax
    6331:	mov    0x28(%rax),%rax
    6335:	lea    0x1(%rax),%rcx
    6339:	mov    -0x8(%rbp),%rdx
    633d:	mov    %rcx,0x28(%rdx)
    6341:	add    %rsi,%rax
    6344:	mov    %edi,%edx
    6346:	mov    %dl,(%rax)
/home/rgesteve/projects/zlib-1.2.11/build/../deflate.c:1059
    6348:	mov    -0x48(%rbp),%rax
    634c:	mov    0x10(%rax),%rax
    6350:	shr    $0x18,%rax
    6354:	mov    %rax,%rdi
    6357:	mov    -0x8(%rbp),%rax
    635b:	mov    0x10(%rax),%rsi
    635f:	mov    -0x8(%rbp),%rax
    6363:	mov    0x28(%rax),%rax
    6367:	lea    0x1(%rax),%rcx
    636b:	mov    -0x8(%rbp),%rdx
    636f:	mov    %rcx,0x28(%rdx)
    6373:	add    %rsi,%rax
    6376:	mov    %edi,%edx
    6378:	mov    %dl,(%rax)
    637a:	jmp    63b1 <deflate+0x12a9>
/home/rgesteve/projects/zlib-1.2.11/build/../deflate.c:1064
    637c:	mov    -0x48(%rbp),%rax
    6380:	mov    0x60(%rax),%rax
    6384:	shr    $0x10,%rax
    6388:	mov    %eax,%edx
    638a:	mov    -0x8(%rbp),%rax
    638e:	mov    %edx,%esi
    6390:	mov    %rax,%rdi
    6393:	callq  4fb1 <putShortMSB>
/home/rgesteve/projects/zlib-1.2.11/build/../deflate.c:1065
    6398:	mov    -0x48(%rbp),%rax
    639c:	mov    0x60(%rax),%rax
    63a0:	movzwl %ax,%edx
    63a3:	mov    -0x8(%rbp),%rax
    63a7:	mov    %edx,%esi
    63a9:	mov    %rax,%rdi
    63ac:	callq  4fb1 <putShortMSB>
/home/rgesteve/projects/zlib-1.2.11/build/../deflate.c:1067
    63b1:	mov    -0x48(%rbp),%rax
    63b5:	mov    %rax,%rdi
    63b8:	callq  500e <flush_pending>
/home/rgesteve/projects/zlib-1.2.11/build/../deflate.c:1071
    63bd:	mov    -0x8(%rbp),%rax
    63c1:	mov    0x30(%rax),%eax
    63c4:	test   %eax,%eax
    63c6:	jle    63da <deflate+0x12d2>
/home/rgesteve/projects/zlib-1.2.11/build/../deflate.c:1071 (discriminator 1)
    63c8:	mov    -0x8(%rbp),%rax
    63cc:	mov    0x30(%rax),%eax
    63cf:	neg    %eax
    63d1:	mov    %eax,%edx
    63d3:	mov    -0x8(%rbp),%rax
    63d7:	mov    %edx,0x30(%rax)
/home/rgesteve/projects/zlib-1.2.11/build/../deflate.c:1072
    63da:	mov    -0x8(%rbp),%rax
    63de:	mov    0x28(%rax),%rax
    63e2:	test   %rax,%rax
    63e5:	sete   %al
    63e8:	movzbl %al,%eax
/home/rgesteve/projects/zlib-1.2.11/build/../deflate.c:1073
    63eb:	leaveq 
    63ec:	retq   

00000000000063ed <deflateEnd>:
deflateEnd():
/home/rgesteve/projects/zlib-1.2.11/build/../deflate.c:1078
    63ed:	push   %rbp
    63ee:	mov    %rsp,%rbp
    63f1:	sub    $0x20,%rsp
    63f5:	mov    %rdi,-0x18(%rbp)
/home/rgesteve/projects/zlib-1.2.11/build/../deflate.c:1081
    63f9:	mov    -0x18(%rbp),%rax
    63fd:	mov    %rax,%rdi
    6400:	callq  4316 <deflateStateCheck>
    6405:	test   %eax,%eax
    6407:	je     6413 <deflateEnd+0x26>
/home/rgesteve/projects/zlib-1.2.11/build/../deflate.c:1081 (discriminator 1)
    6409:	mov    $0xfffffffe,%eax
    640e:	jmpq   6533 <deflateEnd+0x146>
/home/rgesteve/projects/zlib-1.2.11/build/../deflate.c:1083
    6413:	mov    -0x18(%rbp),%rax
    6417:	mov    0x38(%rax),%rax
    641b:	mov    0x8(%rax),%eax
    641e:	mov    %eax,-0x4(%rbp)
/home/rgesteve/projects/zlib-1.2.11/build/../deflate.c:1086
    6421:	mov    -0x18(%rbp),%rax
    6425:	mov    0x38(%rax),%rax
    6429:	mov    0x10(%rax),%rax
    642d:	test   %rax,%rax
    6430:	je     6456 <deflateEnd+0x69>
/home/rgesteve/projects/zlib-1.2.11/build/../deflate.c:1086 (discriminator 1)
    6432:	mov    -0x18(%rbp),%rax
    6436:	mov    0x48(%rax),%rax
    643a:	mov    -0x18(%rbp),%rdx
    643e:	mov    0x38(%rdx),%rdx
    6442:	mov    0x10(%rdx),%rcx
    6446:	mov    -0x18(%rbp),%rdx
    644a:	mov    0x50(%rdx),%rdx
    644e:	mov    %rcx,%rsi
    6451:	mov    %rdx,%rdi
    6454:	callq  *%rax
/home/rgesteve/projects/zlib-1.2.11/build/../deflate.c:1087
    6456:	mov    -0x18(%rbp),%rax
    645a:	mov    0x38(%rax),%rax
    645e:	mov    0x78(%rax),%rax
    6462:	test   %rax,%rax
    6465:	je     648b <deflateEnd+0x9e>
/home/rgesteve/projects/zlib-1.2.11/build/../deflate.c:1087 (discriminator 1)
    6467:	mov    -0x18(%rbp),%rax
    646b:	mov    0x48(%rax),%rax
    646f:	mov    -0x18(%rbp),%rdx
    6473:	mov    0x38(%rdx),%rdx
    6477:	mov    0x78(%rdx),%rcx
    647b:	mov    -0x18(%rbp),%rdx
    647f:	mov    0x50(%rdx),%rdx
    6483:	mov    %rcx,%rsi
    6486:	mov    %rdx,%rdi
    6489:	callq  *%rax
/home/rgesteve/projects/zlib-1.2.11/build/../deflate.c:1088
    648b:	mov    -0x18(%rbp),%rax
    648f:	mov    0x38(%rax),%rax
    6493:	mov    0x70(%rax),%rax
    6497:	test   %rax,%rax
    649a:	je     64c0 <deflateEnd+0xd3>
/home/rgesteve/projects/zlib-1.2.11/build/../deflate.c:1088 (discriminator 1)
    649c:	mov    -0x18(%rbp),%rax
    64a0:	mov    0x48(%rax),%rax
    64a4:	mov    -0x18(%rbp),%rdx
    64a8:	mov    0x38(%rdx),%rdx
    64ac:	mov    0x70(%rdx),%rcx
    64b0:	mov    -0x18(%rbp),%rdx
    64b4:	mov    0x50(%rdx),%rdx
    64b8:	mov    %rcx,%rsi
    64bb:	mov    %rdx,%rdi
    64be:	callq  *%rax
/home/rgesteve/projects/zlib-1.2.11/build/../deflate.c:1089
    64c0:	mov    -0x18(%rbp),%rax
    64c4:	mov    0x38(%rax),%rax
    64c8:	mov    0x60(%rax),%rax
    64cc:	test   %rax,%rax
    64cf:	je     64f5 <deflateEnd+0x108>
/home/rgesteve/projects/zlib-1.2.11/build/../deflate.c:1089 (discriminator 1)
    64d1:	mov    -0x18(%rbp),%rax
    64d5:	mov    0x48(%rax),%rax
    64d9:	mov    -0x18(%rbp),%rdx
    64dd:	mov    0x38(%rdx),%rdx
    64e1:	mov    0x60(%rdx),%rcx
    64e5:	mov    -0x18(%rbp),%rdx
    64e9:	mov    0x50(%rdx),%rdx
    64ed:	mov    %rcx,%rsi
    64f0:	mov    %rdx,%rdi
    64f3:	callq  *%rax
/home/rgesteve/projects/zlib-1.2.11/build/../deflate.c:1091
    64f5:	mov    -0x18(%rbp),%rax
    64f9:	mov    0x48(%rax),%rax
    64fd:	mov    -0x18(%rbp),%rdx
    6501:	mov    0x38(%rdx),%rcx
    6505:	mov    -0x18(%rbp),%rdx
    6509:	mov    0x50(%rdx),%rdx
    650d:	mov    %rcx,%rsi
    6510:	mov    %rdx,%rdi
    6513:	callq  *%rax
/home/rgesteve/projects/zlib-1.2.11/build/../deflate.c:1092
    6515:	mov    -0x18(%rbp),%rax
    6519:	movq   $0x0,0x38(%rax)
/home/rgesteve/projects/zlib-1.2.11/build/../deflate.c:1094
    6521:	cmpl   $0x71,-0x4(%rbp)
    6525:	jne    652e <deflateEnd+0x141>
/home/rgesteve/projects/zlib-1.2.11/build/../deflate.c:1094 (discriminator 1)
    6527:	mov    $0xfffffffd,%eax
    652c:	jmp    6533 <deflateEnd+0x146>
/home/rgesteve/projects/zlib-1.2.11/build/../deflate.c:1094 (discriminator 2)
    652e:	mov    $0x0,%eax
/home/rgesteve/projects/zlib-1.2.11/build/../deflate.c:1095
    6533:	leaveq 
    6534:	retq   

0000000000006535 <deflateCopy>:
deflateCopy():
/home/rgesteve/projects/zlib-1.2.11/build/../deflate.c:1105
    6535:	push   %rbp
    6536:	mov    %rsp,%rbp
    6539:	sub    $0x30,%rsp
    653d:	mov    %rdi,-0x28(%rbp)
    6541:	mov    %rsi,-0x30(%rbp)
/home/rgesteve/projects/zlib-1.2.11/build/../deflate.c:1114
    6545:	mov    -0x30(%rbp),%rax
    6549:	mov    %rax,%rdi
    654c:	callq  4316 <deflateStateCheck>
    6551:	test   %eax,%eax
    6553:	jne    655c <deflateCopy+0x27>
/home/rgesteve/projects/zlib-1.2.11/build/../deflate.c:1114 (discriminator 1)
    6555:	cmpq   $0x0,-0x28(%rbp)
    655a:	jne    6566 <deflateCopy+0x31>
/home/rgesteve/projects/zlib-1.2.11/build/../deflate.c:1115
    655c:	mov    $0xfffffffe,%eax
    6561:	jmpq   6852 <deflateCopy+0x31d>
/home/rgesteve/projects/zlib-1.2.11/build/../deflate.c:1118
    6566:	mov    -0x30(%rbp),%rax
    656a:	mov    0x38(%rax),%rax
    656e:	mov    %rax,-0x18(%rbp)
/home/rgesteve/projects/zlib-1.2.11/build/../deflate.c:1120
    6572:	mov    -0x30(%rbp),%rcx
    6576:	mov    -0x28(%rbp),%rax
    657a:	mov    $0x70,%edx
    657f:	mov    %rcx,%rsi
    6582:	mov    %rax,%rdi
    6585:	callq  2210 <memcpy@plt>
/home/rgesteve/projects/zlib-1.2.11/build/../deflate.c:1122
    658a:	mov    -0x28(%rbp),%rax
    658e:	mov    0x40(%rax),%rax
    6592:	mov    -0x28(%rbp),%rdx
    6596:	mov    0x50(%rdx),%rcx
    659a:	mov    $0x1740,%edx
    659f:	mov    $0x1,%esi
    65a4:	mov    %rcx,%rdi
    65a7:	callq  *%rax
    65a9:	mov    %rax,-0x10(%rbp)
/home/rgesteve/projects/zlib-1.2.11/build/../deflate.c:1123
    65ad:	cmpq   $0x0,-0x10(%rbp)
    65b2:	jne    65be <deflateCopy+0x89>
/home/rgesteve/projects/zlib-1.2.11/build/../deflate.c:1123 (discriminator 1)
    65b4:	mov    $0xfffffffc,%eax
    65b9:	jmpq   6852 <deflateCopy+0x31d>
/home/rgesteve/projects/zlib-1.2.11/build/../deflate.c:1124
    65be:	mov    -0x28(%rbp),%rax
    65c2:	mov    -0x10(%rbp),%rdx
    65c6:	mov    %rdx,0x38(%rax)
/home/rgesteve/projects/zlib-1.2.11/build/../deflate.c:1125
    65ca:	mov    -0x18(%rbp),%rcx
    65ce:	mov    -0x10(%rbp),%rax
    65d2:	mov    $0x1740,%edx
    65d7:	mov    %rcx,%rsi
    65da:	mov    %rax,%rdi
    65dd:	callq  2210 <memcpy@plt>
/home/rgesteve/projects/zlib-1.2.11/build/../deflate.c:1126
    65e2:	mov    -0x10(%rbp),%rax
    65e6:	mov    -0x28(%rbp),%rdx
    65ea:	mov    %rdx,(%rax)
/home/rgesteve/projects/zlib-1.2.11/build/../deflate.c:1128
    65ed:	mov    -0x28(%rbp),%rax
    65f1:	mov    0x40(%rax),%rax
    65f5:	mov    -0x10(%rbp),%rdx
    65f9:	mov    0x50(%rdx),%esi
    65fc:	mov    -0x28(%rbp),%rdx
    6600:	mov    0x50(%rdx),%rcx
    6604:	mov    $0x2,%edx
    6609:	mov    %rcx,%rdi
    660c:	callq  *%rax
    660e:	mov    %rax,%rdx
    6611:	mov    -0x10(%rbp),%rax
    6615:	mov    %rdx,0x60(%rax)
/home/rgesteve/projects/zlib-1.2.11/build/../deflate.c:1129
    6619:	mov    -0x28(%rbp),%rax
    661d:	mov    0x40(%rax),%rax
    6621:	mov    -0x10(%rbp),%rdx
    6625:	mov    0x50(%rdx),%esi
    6628:	mov    -0x28(%rbp),%rdx
    662c:	mov    0x50(%rdx),%rcx
    6630:	mov    $0x2,%edx
    6635:	mov    %rcx,%rdi
    6638:	callq  *%rax
    663a:	mov    %rax,%rdx
    663d:	mov    -0x10(%rbp),%rax
    6641:	mov    %rdx,0x70(%rax)
/home/rgesteve/projects/zlib-1.2.11/build/../deflate.c:1130
    6645:	mov    -0x28(%rbp),%rax
    6649:	mov    0x40(%rax),%rax
    664d:	mov    -0x10(%rbp),%rdx
    6651:	mov    0x84(%rdx),%esi
    6657:	mov    -0x28(%rbp),%rdx
    665b:	mov    0x50(%rdx),%rcx
    665f:	mov    $0x2,%edx
    6664:	mov    %rcx,%rdi
    6667:	callq  *%rax
    6669:	mov    %rax,%rdx
    666c:	mov    -0x10(%rbp),%rax
    6670:	mov    %rdx,0x78(%rax)
/home/rgesteve/projects/zlib-1.2.11/build/../deflate.c:1131
    6674:	mov    -0x28(%rbp),%rax
    6678:	mov    0x40(%rax),%rax
    667c:	mov    -0x10(%rbp),%rdx
    6680:	mov    0x1708(%rdx),%esi
    6686:	mov    -0x28(%rbp),%rdx
    668a:	mov    0x50(%rdx),%rcx
    668e:	mov    $0x4,%edx
    6693:	mov    %rcx,%rdi
    6696:	callq  *%rax
    6698:	mov    %rax,-0x8(%rbp)
/home/rgesteve/projects/zlib-1.2.11/build/../deflate.c:1132
    669c:	mov    -0x10(%rbp),%rax
    66a0:	mov    -0x8(%rbp),%rdx
    66a4:	mov    %rdx,0x10(%rax)
/home/rgesteve/projects/zlib-1.2.11/build/../deflate.c:1134
    66a8:	mov    -0x10(%rbp),%rax
    66ac:	mov    0x60(%rax),%rax
    66b0:	test   %rax,%rax
    66b3:	je     66dc <deflateCopy+0x1a7>
/home/rgesteve/projects/zlib-1.2.11/build/../deflate.c:1134 (discriminator 1)
    66b5:	mov    -0x10(%rbp),%rax
    66b9:	mov    0x70(%rax),%rax
    66bd:	test   %rax,%rax
    66c0:	je     66dc <deflateCopy+0x1a7>
/home/rgesteve/projects/zlib-1.2.11/build/../deflate.c:1134 (discriminator 2)
    66c2:	mov    -0x10(%rbp),%rax
    66c6:	mov    0x78(%rax),%rax
    66ca:	test   %rax,%rax
    66cd:	je     66dc <deflateCopy+0x1a7>
/home/rgesteve/projects/zlib-1.2.11/build/../deflate.c:1135 (discriminator 3)
    66cf:	mov    -0x10(%rbp),%rax
    66d3:	mov    0x10(%rax),%rax
/home/rgesteve/projects/zlib-1.2.11/build/../deflate.c:1134 (discriminator 3)
    66d7:	test   %rax,%rax
    66da:	jne    66f2 <deflateCopy+0x1bd>
/home/rgesteve/projects/zlib-1.2.11/build/../deflate.c:1136
    66dc:	mov    -0x28(%rbp),%rax
    66e0:	mov    %rax,%rdi
    66e3:	callq  2270 <deflateEnd@plt>
/home/rgesteve/projects/zlib-1.2.11/build/../deflate.c:1137
    66e8:	mov    $0xfffffffc,%eax
    66ed:	jmpq   6852 <deflateCopy+0x31d>
/home/rgesteve/projects/zlib-1.2.11/build/../deflate.c:1140
    66f2:	mov    -0x10(%rbp),%rax
    66f6:	mov    0x50(%rax),%eax
    66f9:	add    %eax,%eax
    66fb:	mov    %eax,%edx
    66fd:	mov    -0x18(%rbp),%rax
    6701:	mov    0x60(%rax),%rcx
    6705:	mov    -0x10(%rbp),%rax
    6709:	mov    0x60(%rax),%rax
    670d:	mov    %rcx,%rsi
    6710:	mov    %rax,%rdi
    6713:	callq  2210 <memcpy@plt>
/home/rgesteve/projects/zlib-1.2.11/build/../deflate.c:1141
    6718:	mov    -0x10(%rbp),%rax
    671c:	mov    0x50(%rax),%eax
    671f:	mov    %eax,%eax
    6721:	lea    (%rax,%rax,1),%rdx
    6725:	mov    -0x18(%rbp),%rax
    6729:	mov    0x70(%rax),%rcx
    672d:	mov    -0x10(%rbp),%rax
    6731:	mov    0x70(%rax),%rax
    6735:	mov    %rcx,%rsi
    6738:	mov    %rax,%rdi
    673b:	callq  2210 <memcpy@plt>
/home/rgesteve/projects/zlib-1.2.11/build/../deflate.c:1142
    6740:	mov    -0x10(%rbp),%rax
    6744:	mov    0x84(%rax),%eax
    674a:	mov    %eax,%eax
    674c:	lea    (%rax,%rax,1),%rdx
    6750:	mov    -0x18(%rbp),%rax
    6754:	mov    0x78(%rax),%rcx
    6758:	mov    -0x10(%rbp),%rax
    675c:	mov    0x78(%rax),%rax
    6760:	mov    %rcx,%rsi
    6763:	mov    %rax,%rdi
    6766:	callq  2210 <memcpy@plt>
/home/rgesteve/projects/zlib-1.2.11/build/../deflate.c:1143
    676b:	mov    -0x10(%rbp),%rax
    676f:	mov    0x18(%rax),%rax
    6773:	mov    %eax,%edx
    6775:	mov    -0x18(%rbp),%rax
    6779:	mov    0x10(%rax),%rcx
    677d:	mov    -0x10(%rbp),%rax
    6781:	mov    0x10(%rax),%rax
    6785:	mov    %rcx,%rsi
    6788:	mov    %rax,%rdi
    678b:	callq  2210 <memcpy@plt>
/home/rgesteve/projects/zlib-1.2.11/build/../deflate.c:1145
    6790:	mov    -0x10(%rbp),%rax
    6794:	mov    0x10(%rax),%rdx
    6798:	mov    -0x18(%rbp),%rax
    679c:	mov    0x20(%rax),%rax
    67a0:	mov    %rax,%rcx
    67a3:	mov    -0x18(%rbp),%rax
    67a7:	mov    0x10(%rax),%rax
    67ab:	sub    %rax,%rcx
    67ae:	mov    %rcx,%rax
    67b1:	add    %rax,%rdx
    67b4:	mov    -0x10(%rbp),%rax
    67b8:	mov    %rdx,0x20(%rax)
/home/rgesteve/projects/zlib-1.2.11/build/../deflate.c:1146
    67bc:	mov    -0x10(%rbp),%rax
    67c0:	mov    0x1708(%rax),%eax
    67c6:	shr    %eax
    67c8:	mov    %eax,%eax
    67ca:	lea    (%rax,%rax,1),%rdx
    67ce:	mov    -0x8(%rbp),%rax
    67d2:	add    %rax,%rdx
    67d5:	mov    -0x10(%rbp),%rax
    67d9:	mov    %rdx,0x1710(%rax)
/home/rgesteve/projects/zlib-1.2.11/build/../deflate.c:1147
    67e0:	mov    -0x10(%rbp),%rax
    67e4:	mov    0x10(%rax),%rdx
    67e8:	mov    -0x10(%rbp),%rax
    67ec:	mov    0x1708(%rax),%eax
    67f2:	mov    %eax,%ecx
    67f4:	mov    %rcx,%rax
    67f7:	add    %rax,%rax
    67fa:	add    %rcx,%rax
    67fd:	add    %rax,%rdx
    6800:	mov    -0x10(%rbp),%rax
    6804:	mov    %rdx,0x1700(%rax)
/home/rgesteve/projects/zlib-1.2.11/build/../deflate.c:1149
    680b:	mov    -0x10(%rbp),%rax
    680f:	lea    0xd4(%rax),%rdx
    6816:	mov    -0x10(%rbp),%rax
    681a:	mov    %rdx,0xb58(%rax)
/home/rgesteve/projects/zlib-1.2.11/build/../deflate.c:1150
    6821:	mov    -0x10(%rbp),%rax
    6825:	lea    0x9c8(%rax),%rdx
    682c:	mov    -0x10(%rbp),%rax
    6830:	mov    %rdx,0xb70(%rax)
/home/rgesteve/projects/zlib-1.2.11/build/../deflate.c:1151
    6837:	mov    -0x10(%rbp),%rax
    683b:	lea    0xabc(%rax),%rdx
    6842:	mov    -0x10(%rbp),%rax
    6846:	mov    %rdx,0xb88(%rax)
/home/rgesteve/projects/zlib-1.2.11/build/../deflate.c:1153
    684d:	mov    $0x0,%eax
/home/rgesteve/projects/zlib-1.2.11/build/../deflate.c:1155
    6852:	leaveq 
    6853:	retq   

0000000000006854 <read_buf>:
read_buf():
/home/rgesteve/projects/zlib-1.2.11/build/../deflate.c:1168
    6854:	push   %rbp
    6855:	mov    %rsp,%rbp
    6858:	sub    $0x30,%rsp
    685c:	mov    %rdi,-0x18(%rbp)
    6860:	mov    %rsi,-0x20(%rbp)
    6864:	mov    %edx,-0x24(%rbp)
/home/rgesteve/projects/zlib-1.2.11/build/../deflate.c:1169
    6867:	mov    -0x18(%rbp),%rax
    686b:	mov    0x8(%rax),%eax
    686e:	mov    %eax,-0x4(%rbp)
/home/rgesteve/projects/zlib-1.2.11/build/../deflate.c:1171
    6871:	mov    -0x4(%rbp),%eax
    6874:	cmp    -0x24(%rbp),%eax
    6877:	jbe    687f <read_buf+0x2b>
/home/rgesteve/projects/zlib-1.2.11/build/../deflate.c:1171 (discriminator 1)
    6879:	mov    -0x24(%rbp),%eax
    687c:	mov    %eax,-0x4(%rbp)
/home/rgesteve/projects/zlib-1.2.11/build/../deflate.c:1172
    687f:	cmpl   $0x0,-0x4(%rbp)
    6883:	jne    688f <read_buf+0x3b>
/home/rgesteve/projects/zlib-1.2.11/build/../deflate.c:1172 (discriminator 1)
    6885:	mov    $0x0,%eax
    688a:	jmpq   6954 <read_buf+0x100>
/home/rgesteve/projects/zlib-1.2.11/build/../deflate.c:1174
    688f:	mov    -0x18(%rbp),%rax
    6893:	mov    0x8(%rax),%eax
    6896:	sub    -0x4(%rbp),%eax
    6899:	mov    %eax,%edx
    689b:	mov    -0x18(%rbp),%rax
    689f:	mov    %edx,0x8(%rax)
/home/rgesteve/projects/zlib-1.2.11/build/../deflate.c:1176
    68a2:	mov    -0x4(%rbp),%edx
    68a5:	mov    -0x18(%rbp),%rax
    68a9:	mov    (%rax),%rcx
    68ac:	mov    -0x20(%rbp),%rax
    68b0:	mov    %rcx,%rsi
    68b3:	mov    %rax,%rdi
    68b6:	callq  2210 <memcpy@plt>
/home/rgesteve/projects/zlib-1.2.11/build/../deflate.c:1177
    68bb:	mov    -0x18(%rbp),%rax
    68bf:	mov    0x38(%rax),%rax
    68c3:	mov    0x30(%rax),%eax
    68c6:	cmp    $0x1,%eax
    68c9:	jne    68f2 <read_buf+0x9e>
/home/rgesteve/projects/zlib-1.2.11/build/../deflate.c:1178
    68cb:	mov    -0x18(%rbp),%rax
    68cf:	mov    0x60(%rax),%rax
    68d3:	mov    -0x4(%rbp),%edx
    68d6:	mov    -0x20(%rbp),%rcx
    68da:	mov    %rcx,%rsi
    68dd:	mov    %rax,%rdi
    68e0:	callq  2240 <adler32@plt>
    68e5:	mov    %rax,%rdx
    68e8:	mov    -0x18(%rbp),%rax
    68ec:	mov    %rdx,0x60(%rax)
    68f0:	jmp    6927 <read_buf+0xd3>
/home/rgesteve/projects/zlib-1.2.11/build/../deflate.c:1181
    68f2:	mov    -0x18(%rbp),%rax
    68f6:	mov    0x38(%rax),%rax
    68fa:	mov    0x30(%rax),%eax
    68fd:	cmp    $0x2,%eax
    6900:	jne    6927 <read_buf+0xd3>
/home/rgesteve/projects/zlib-1.2.11/build/../deflate.c:1182
    6902:	mov    -0x18(%rbp),%rax
    6906:	mov    0x60(%rax),%rax
    690a:	mov    -0x4(%rbp),%edx
    690d:	mov    -0x20(%rbp),%rcx
    6911:	mov    %rcx,%rsi
    6914:	mov    %rax,%rdi
    6917:	callq  2110 <crc32@plt>
    691c:	mov    %rax,%rdx
    691f:	mov    -0x18(%rbp),%rax
    6923:	mov    %rdx,0x60(%rax)
/home/rgesteve/projects/zlib-1.2.11/build/../deflate.c:1185
    6927:	mov    -0x18(%rbp),%rax
    692b:	mov    (%rax),%rdx
    692e:	mov    -0x4(%rbp),%eax
    6931:	add    %rax,%rdx
    6934:	mov    -0x18(%rbp),%rax
    6938:	mov    %rdx,(%rax)
/home/rgesteve/projects/zlib-1.2.11/build/../deflate.c:1186
    693b:	mov    -0x18(%rbp),%rax
    693f:	mov    0x10(%rax),%rdx
    6943:	mov    -0x4(%rbp),%eax
    6946:	add    %rax,%rdx
    6949:	mov    -0x18(%rbp),%rax
    694d:	mov    %rdx,0x10(%rax)
/home/rgesteve/projects/zlib-1.2.11/build/../deflate.c:1188
    6951:	mov    -0x4(%rbp),%eax
/home/rgesteve/projects/zlib-1.2.11/build/../deflate.c:1189
    6954:	leaveq 
    6955:	retq   

0000000000006956 <lm_init>:
lm_init():
/home/rgesteve/projects/zlib-1.2.11/build/../deflate.c:1196
    6956:	push   %rbp
    6957:	mov    %rsp,%rbp
    695a:	sub    $0x10,%rsp
    695e:	mov    %rdi,-0x8(%rbp)
/home/rgesteve/projects/zlib-1.2.11/build/../deflate.c:1197
    6962:	mov    -0x8(%rbp),%rax
    6966:	mov    0x50(%rax),%eax
    6969:	mov    %eax,%eax
    696b:	lea    (%rax,%rax,1),%rdx
    696f:	mov    -0x8(%rbp),%rax
    6973:	mov    %rdx,0x68(%rax)
/home/rgesteve/projects/zlib-1.2.11/build/../deflate.c:1199
    6977:	mov    -0x8(%rbp),%rax
    697b:	mov    0x78(%rax),%rdx
    697f:	mov    -0x8(%rbp),%rax
    6983:	mov    0x84(%rax),%eax
    6989:	sub    $0x1,%eax
    698c:	mov    %eax,%eax
    698e:	add    %rax,%rax
    6991:	add    %rdx,%rax
    6994:	movw   $0x0,(%rax)
    6999:	mov    -0x8(%rbp),%rax
    699d:	mov    0x84(%rax),%eax
    69a3:	sub    $0x1,%eax
    69a6:	mov    %eax,%eax
    69a8:	lea    (%rax,%rax,1),%rdx
    69ac:	mov    -0x8(%rbp),%rax
    69b0:	mov    0x78(%rax),%rax
    69b4:	mov    $0x0,%esi
    69b9:	mov    %rax,%rdi
    69bc:	callq  2190 <memset@plt>
/home/rgesteve/projects/zlib-1.2.11/build/../deflate.c:1203
    69c1:	mov    -0x8(%rbp),%rax
    69c5:	mov    0xc4(%rax),%eax
    69cb:	cltq   
    69cd:	shl    $0x4,%rax
    69d1:	mov    %rax,%rdx
    69d4:	lea    0x2162c7(%rip),%rax        # 21cca2 <configuration_table+0x2>
    69db:	movzwl (%rdx,%rax,1),%eax
    69df:	movzwl %ax,%edx
    69e2:	mov    -0x8(%rbp),%rax
    69e6:	mov    %edx,0xc0(%rax)
/home/rgesteve/projects/zlib-1.2.11/build/../deflate.c:1204
    69ec:	mov    -0x8(%rbp),%rax
    69f0:	mov    0xc4(%rax),%eax
    69f6:	cltq   
    69f8:	shl    $0x4,%rax
    69fc:	mov    %rax,%rdx
    69ff:	lea    0x21629a(%rip),%rax        # 21cca0 <configuration_table>
    6a06:	movzwl (%rdx,%rax,1),%eax
    6a0a:	movzwl %ax,%edx
    6a0d:	mov    -0x8(%rbp),%rax
    6a11:	mov    %edx,0xcc(%rax)
/home/rgesteve/projects/zlib-1.2.11/build/../deflate.c:1205
    6a17:	mov    -0x8(%rbp),%rax
    6a1b:	mov    0xc4(%rax),%eax
    6a21:	cltq   
    6a23:	shl    $0x4,%rax
    6a27:	mov    %rax,%rdx
    6a2a:	lea    0x216273(%rip),%rax        # 21cca4 <configuration_table+0x4>
    6a31:	movzwl (%rdx,%rax,1),%eax
    6a35:	movzwl %ax,%edx
    6a38:	mov    -0x8(%rbp),%rax
    6a3c:	mov    %edx,0xd0(%rax)
/home/rgesteve/projects/zlib-1.2.11/build/../deflate.c:1206
    6a42:	mov    -0x8(%rbp),%rax
    6a46:	mov    0xc4(%rax),%eax
    6a4c:	cltq   
    6a4e:	shl    $0x4,%rax
    6a52:	mov    %rax,%rdx
    6a55:	lea    0x21624a(%rip),%rax        # 21cca6 <configuration_table+0x6>
    6a5c:	movzwl (%rdx,%rax,1),%eax
    6a60:	movzwl %ax,%edx
    6a63:	mov    -0x8(%rbp),%rax
    6a67:	mov    %edx,0xbc(%rax)
/home/rgesteve/projects/zlib-1.2.11/build/../deflate.c:1208
    6a6d:	mov    -0x8(%rbp),%rax
    6a71:	movl   $0x0,0xac(%rax)
/home/rgesteve/projects/zlib-1.2.11/build/../deflate.c:1209
    6a7b:	mov    -0x8(%rbp),%rax
    6a7f:	movq   $0x0,0x98(%rax)
/home/rgesteve/projects/zlib-1.2.11/build/../deflate.c:1210
    6a8a:	mov    -0x8(%rbp),%rax
    6a8e:	movl   $0x0,0xb4(%rax)
/home/rgesteve/projects/zlib-1.2.11/build/../deflate.c:1211
    6a98:	mov    -0x8(%rbp),%rax
    6a9c:	movl   $0x0,0x172c(%rax)
/home/rgesteve/projects/zlib-1.2.11/build/../deflate.c:1212
    6aa6:	mov    -0x8(%rbp),%rax
    6aaa:	movl   $0x2,0xb8(%rax)
    6ab4:	mov    -0x8(%rbp),%rax
    6ab8:	mov    0xb8(%rax),%edx
    6abe:	mov    -0x8(%rbp),%rax
    6ac2:	mov    %edx,0xa0(%rax)
/home/rgesteve/projects/zlib-1.2.11/build/../deflate.c:1213
    6ac8:	mov    -0x8(%rbp),%rax
    6acc:	movl   $0x0,0xa8(%rax)
/home/rgesteve/projects/zlib-1.2.11/build/../deflate.c:1214
    6ad6:	mov    -0x8(%rbp),%rax
    6ada:	movl   $0x0,0x80(%rax)
/home/rgesteve/projects/zlib-1.2.11/build/../deflate.c:1220
    6ae4:	nop
    6ae5:	leaveq 
    6ae6:	retq   

0000000000006ae7 <longest_match>:
longest_match():
/home/rgesteve/projects/zlib-1.2.11/build/../deflate.c:1239
    6ae7:	push   %rbp
    6ae8:	mov    %rsp,%rbp
    6aeb:	push   %r15
    6aed:	push   %r14
    6aef:	push   %r13
    6af1:	push   %r12
    6af3:	push   %rbx
    6af4:	mov    %rdi,-0x50(%rbp)
    6af8:	mov    %esi,-0x54(%rbp)
/home/rgesteve/projects/zlib-1.2.11/build/../deflate.c:1240
    6afb:	mov    -0x50(%rbp),%rax
    6aff:	mov    0xbc(%rax),%eax
    6b05:	mov    %eax,-0x44(%rbp)
/home/rgesteve/projects/zlib-1.2.11/build/../deflate.c:1241
    6b08:	mov    -0x50(%rbp),%rax
    6b0c:	mov    0x60(%rax),%rdx
    6b10:	mov    -0x50(%rbp),%rax
    6b14:	mov    0xac(%rax),%eax
    6b1a:	mov    %eax,%eax
    6b1c:	lea    (%rdx,%rax,1),%rbx
/home/rgesteve/projects/zlib-1.2.11/build/../deflate.c:1244
    6b20:	mov    -0x50(%rbp),%rax
    6b24:	mov    0xb8(%rax),%eax
    6b2a:	mov    %eax,-0x40(%rbp)
/home/rgesteve/projects/zlib-1.2.11/build/../deflate.c:1245
    6b2d:	mov    -0x50(%rbp),%rax
    6b31:	mov    0xd0(%rax),%eax
    6b37:	mov    %eax,-0x3c(%rbp)
/home/rgesteve/projects/zlib-1.2.11/build/../deflate.c:1246
    6b3a:	mov    -0x50(%rbp),%rax
    6b3e:	mov    0xac(%rax),%edx
    6b44:	mov    -0x50(%rbp),%rax
    6b48:	mov    0x50(%rax),%eax
    6b4b:	sub    $0x106,%eax
/home/rgesteve/projects/zlib-1.2.11/build/../deflate.c:1247
    6b50:	cmp    %eax,%edx
    6b52:	jbe    6b70 <longest_match+0x89>
/home/rgesteve/projects/zlib-1.2.11/build/../deflate.c:1247 (discriminator 1)
    6b54:	mov    -0x50(%rbp),%rax
    6b58:	mov    0xac(%rax),%edx
    6b5e:	mov    -0x50(%rbp),%rax
    6b62:	mov    0x50(%rax),%eax
    6b65:	sub    %eax,%edx
    6b67:	mov    %edx,%eax
    6b69:	add    $0x106,%eax
    6b6e:	jmp    6b75 <longest_match+0x8e>
/home/rgesteve/projects/zlib-1.2.11/build/../deflate.c:1247 (discriminator 2)
    6b70:	mov    $0x0,%eax
/home/rgesteve/projects/zlib-1.2.11/build/../deflate.c:1246
    6b75:	mov    %eax,-0x38(%rbp)
/home/rgesteve/projects/zlib-1.2.11/build/../deflate.c:1251
    6b78:	mov    -0x50(%rbp),%rax
    6b7c:	mov    0x70(%rax),%rax
    6b80:	mov    %rax,-0x30(%rbp)
/home/rgesteve/projects/zlib-1.2.11/build/../deflate.c:1252
    6b84:	mov    -0x50(%rbp),%rax
    6b88:	mov    0x58(%rax),%eax
    6b8b:	mov    %eax,-0x34(%rbp)
/home/rgesteve/projects/zlib-1.2.11/build/../deflate.c:1262
    6b8e:	mov    -0x50(%rbp),%rax
    6b92:	mov    0x60(%rax),%rdx
    6b96:	mov    -0x50(%rbp),%rax
    6b9a:	mov    0xac(%rax),%eax
    6ba0:	mov    %eax,%eax
    6ba2:	add    $0x102,%rax
    6ba8:	lea    (%rdx,%rax,1),%r13
/home/rgesteve/projects/zlib-1.2.11/build/../deflate.c:1263
    6bac:	mov    -0x40(%rbp),%eax
    6baf:	cltq   
    6bb1:	sub    $0x1,%rax
    6bb5:	add    %rbx,%rax
    6bb8:	movzbl (%rax),%r14d
/home/rgesteve/projects/zlib-1.2.11/build/../deflate.c:1264
    6bbc:	mov    -0x40(%rbp),%eax
    6bbf:	cltq   
    6bc1:	add    %rbx,%rax
    6bc4:	movzbl (%rax),%r15d
/home/rgesteve/projects/zlib-1.2.11/build/../deflate.c:1273
    6bc8:	mov    -0x50(%rbp),%rax
    6bcc:	mov    0xb8(%rax),%edx
    6bd2:	mov    -0x50(%rbp),%rax
    6bd6:	mov    0xcc(%rax),%eax
    6bdc:	cmp    %eax,%edx
    6bde:	jb     6be4 <longest_match+0xfd>
/home/rgesteve/projects/zlib-1.2.11/build/../deflate.c:1274
    6be0:	shrl   $0x2,-0x44(%rbp)
/home/rgesteve/projects/zlib-1.2.11/build/../deflate.c:1279
    6be4:	mov    -0x50(%rbp),%rax
    6be8:	mov    0xb4(%rax),%edx
    6bee:	mov    -0x3c(%rbp),%eax
    6bf1:	cmp    %eax,%edx
    6bf3:	jae    6c02 <longest_match+0x11b>
/home/rgesteve/projects/zlib-1.2.11/build/../deflate.c:1279 (discriminator 1)
    6bf5:	mov    -0x50(%rbp),%rax
    6bf9:	mov    0xb4(%rax),%eax
    6bff:	mov    %eax,-0x3c(%rbp)
/home/rgesteve/projects/zlib-1.2.11/build/../deflate.c:1285
    6c02:	mov    -0x50(%rbp),%rax
    6c06:	mov    0x60(%rax),%rdx
    6c0a:	mov    -0x54(%rbp),%eax
    6c0d:	lea    (%rdx,%rax,1),%r12
/home/rgesteve/projects/zlib-1.2.11/build/../deflate.c:1330
    6c11:	mov    -0x40(%rbp),%eax
    6c14:	cltq   
    6c16:	add    %r12,%rax
    6c19:	movzbl (%rax),%eax
    6c1c:	cmp    %al,%r15b
    6c1f:	jne    6d76 <longest_match+0x28f>
/home/rgesteve/projects/zlib-1.2.11/build/../deflate.c:1331 (discriminator 1)
    6c25:	mov    -0x40(%rbp),%eax
    6c28:	cltq   
    6c2a:	sub    $0x1,%rax
    6c2e:	add    %r12,%rax
    6c31:	movzbl (%rax),%eax
/home/rgesteve/projects/zlib-1.2.11/build/../deflate.c:1330 (discriminator 1)
    6c34:	cmp    %al,%r14b
    6c37:	jne    6d76 <longest_match+0x28f>
/home/rgesteve/projects/zlib-1.2.11/build/../deflate.c:1332
    6c3d:	movzbl (%r12),%edx
    6c42:	movzbl (%rbx),%eax
/home/rgesteve/projects/zlib-1.2.11/build/../deflate.c:1331
    6c45:	cmp    %al,%dl
    6c47:	jne    6d76 <longest_match+0x28f>
/home/rgesteve/projects/zlib-1.2.11/build/../deflate.c:1332
    6c4d:	add    $0x1,%r12
/home/rgesteve/projects/zlib-1.2.11/build/../deflate.c:1333
    6c51:	movzbl (%r12),%edx
    6c56:	lea    0x1(%rbx),%rax
    6c5a:	movzbl (%rax),%eax
/home/rgesteve/projects/zlib-1.2.11/build/../deflate.c:1332
    6c5d:	cmp    %al,%dl
    6c5f:	jne    6d76 <longest_match+0x28f>
/home/rgesteve/projects/zlib-1.2.11/build/../deflate.c:1341
    6c65:	add    $0x2,%rbx
    6c69:	add    $0x1,%r12
/home/rgesteve/projects/zlib-1.2.11/build/../deflate.c:1352
    6c6d:	add    $0x1,%rbx
/home/rgesteve/projects/zlib-1.2.11/build/../deflate.c:1348
    6c71:	movzbl (%rbx),%edx
/home/rgesteve/projects/zlib-1.2.11/build/../deflate.c:1352
    6c74:	add    $0x1,%r12
/home/rgesteve/projects/zlib-1.2.11/build/../deflate.c:1348
    6c78:	movzbl (%r12),%eax
/home/rgesteve/projects/zlib-1.2.11/build/../deflate.c:1352
    6c7d:	cmp    %al,%dl
    6c7f:	jne    6d1e <longest_match+0x237>
/home/rgesteve/projects/zlib-1.2.11/build/../deflate.c:1348
    6c85:	add    $0x1,%rbx
    6c89:	movzbl (%rbx),%edx
    6c8c:	add    $0x1,%r12
    6c90:	movzbl (%r12),%eax
    6c95:	cmp    %al,%dl
    6c97:	jne    6d1e <longest_match+0x237>
/home/rgesteve/projects/zlib-1.2.11/build/../deflate.c:1348 (discriminator 1)
    6c9d:	add    $0x1,%rbx
/home/rgesteve/projects/zlib-1.2.11/build/../deflate.c:1349 (discriminator 1)
    6ca1:	movzbl (%rbx),%edx
/home/rgesteve/projects/zlib-1.2.11/build/../deflate.c:1348 (discriminator 1)
    6ca4:	add    $0x1,%r12
/home/rgesteve/projects/zlib-1.2.11/build/../deflate.c:1349 (discriminator 1)
    6ca8:	movzbl (%r12),%eax
/home/rgesteve/projects/zlib-1.2.11/build/../deflate.c:1348 (discriminator 1)
    6cad:	cmp    %al,%dl
    6caf:	jne    6d1e <longest_match+0x237>
/home/rgesteve/projects/zlib-1.2.11/build/../deflate.c:1349
    6cb1:	add    $0x1,%rbx
    6cb5:	movzbl (%rbx),%edx
    6cb8:	add    $0x1,%r12
    6cbc:	movzbl (%r12),%eax
    6cc1:	cmp    %al,%dl
    6cc3:	jne    6d1e <longest_match+0x237>
/home/rgesteve/projects/zlib-1.2.11/build/../deflate.c:1349 (discriminator 1)
    6cc5:	add    $0x1,%rbx
/home/rgesteve/projects/zlib-1.2.11/build/../deflate.c:1350 (discriminator 1)
    6cc9:	movzbl (%rbx),%edx
/home/rgesteve/projects/zlib-1.2.11/build/../deflate.c:1349 (discriminator 1)
    6ccc:	add    $0x1,%r12
/home/rgesteve/projects/zlib-1.2.11/build/../deflate.c:1350 (discriminator 1)
    6cd0:	movzbl (%r12),%eax
/home/rgesteve/projects/zlib-1.2.11/build/../deflate.c:1349 (discriminator 1)
    6cd5:	cmp    %al,%dl
    6cd7:	jne    6d1e <longest_match+0x237>
/home/rgesteve/projects/zlib-1.2.11/build/../deflate.c:1350
    6cd9:	add    $0x1,%rbx
    6cdd:	movzbl (%rbx),%edx
    6ce0:	add    $0x1,%r12
    6ce4:	movzbl (%r12),%eax
    6ce9:	cmp    %al,%dl
    6ceb:	jne    6d1e <longest_match+0x237>
/home/rgesteve/projects/zlib-1.2.11/build/../deflate.c:1350 (discriminator 1)
    6ced:	add    $0x1,%rbx
/home/rgesteve/projects/zlib-1.2.11/build/../deflate.c:1351 (discriminator 1)
    6cf1:	movzbl (%rbx),%edx
/home/rgesteve/projects/zlib-1.2.11/build/../deflate.c:1350 (discriminator 1)
    6cf4:	add    $0x1,%r12
/home/rgesteve/projects/zlib-1.2.11/build/../deflate.c:1351 (discriminator 1)
    6cf8:	movzbl (%r12),%eax
/home/rgesteve/projects/zlib-1.2.11/build/../deflate.c:1350 (discriminator 1)
    6cfd:	cmp    %al,%dl
    6cff:	jne    6d1e <longest_match+0x237>
/home/rgesteve/projects/zlib-1.2.11/build/../deflate.c:1351
    6d01:	add    $0x1,%rbx
    6d05:	movzbl (%rbx),%edx
    6d08:	add    $0x1,%r12
    6d0c:	movzbl (%r12),%eax
    6d11:	cmp    %al,%dl
    6d13:	jne    6d1e <longest_match+0x237>
/home/rgesteve/projects/zlib-1.2.11/build/../deflate.c:1351 (discriminator 1)
    6d15:	cmp    %r13,%rbx
    6d18:	jb     6c6d <longest_match+0x186>
/home/rgesteve/projects/zlib-1.2.11/build/../deflate.c:1356
    6d1e:	mov    %r13,%rdx
    6d21:	mov    %rbx,%rax
    6d24:	sub    %rax,%rdx
    6d27:	mov    %rdx,%rax
    6d2a:	mov    $0x102,%edx
    6d2f:	sub    %eax,%edx
    6d31:	mov    %edx,%r12d
/home/rgesteve/projects/zlib-1.2.11/build/../deflate.c:1357
    6d34:	lea    -0x102(%r13),%rbx
/home/rgesteve/projects/zlib-1.2.11/build/../deflate.c:1361
    6d3b:	cmp    -0x40(%rbp),%r12d
    6d3f:	jle    6d77 <longest_match+0x290>
/home/rgesteve/projects/zlib-1.2.11/build/../deflate.c:1362
    6d41:	mov    -0x50(%rbp),%rax
    6d45:	mov    -0x54(%rbp),%edx
    6d48:	mov    %edx,0xb0(%rax)
/home/rgesteve/projects/zlib-1.2.11/build/../deflate.c:1363
    6d4e:	mov    %r12d,-0x40(%rbp)
/home/rgesteve/projects/zlib-1.2.11/build/../deflate.c:1364
    6d52:	cmp    -0x3c(%rbp),%r12d
    6d56:	jge    6dab <longest_match+0x2c4>
/home/rgesteve/projects/zlib-1.2.11/build/../deflate.c:1368
    6d58:	mov    -0x40(%rbp),%eax
    6d5b:	cltq   
    6d5d:	sub    $0x1,%rax
    6d61:	add    %rbx,%rax
    6d64:	movzbl (%rax),%r14d
/home/rgesteve/projects/zlib-1.2.11/build/../deflate.c:1369
    6d68:	mov    -0x40(%rbp),%eax
    6d6b:	cltq   
    6d6d:	add    %rbx,%rax
    6d70:	movzbl (%rax),%r15d
    6d74:	jmp    6d77 <longest_match+0x290>
/home/rgesteve/projects/zlib-1.2.11/build/../deflate.c:1333
    6d76:	nop
/home/rgesteve/projects/zlib-1.2.11/build/../deflate.c:1372
    6d77:	mov    -0x54(%rbp),%eax
    6d7a:	and    -0x34(%rbp),%eax
    6d7d:	mov    %eax,%eax
    6d7f:	lea    (%rax,%rax,1),%rdx
    6d83:	mov    -0x30(%rbp),%rax
    6d87:	add    %rdx,%rax
    6d8a:	movzwl (%rax),%eax
    6d8d:	movzwl %ax,%eax
    6d90:	mov    %eax,-0x54(%rbp)
/home/rgesteve/projects/zlib-1.2.11/build/../deflate.c:1373
    6d93:	mov    -0x54(%rbp),%eax
    6d96:	cmp    -0x38(%rbp),%eax
    6d99:	jbe    6dac <longest_match+0x2c5>
/home/rgesteve/projects/zlib-1.2.11/build/../deflate.c:1373 (discriminator 1)
    6d9b:	subl   $0x1,-0x44(%rbp)
    6d9f:	cmpl   $0x0,-0x44(%rbp)
    6da3:	jne    6c02 <longest_match+0x11b>
    6da9:	jmp    6dac <longest_match+0x2c5>
/home/rgesteve/projects/zlib-1.2.11/build/../deflate.c:1364
    6dab:	nop
/home/rgesteve/projects/zlib-1.2.11/build/../deflate.c:1375
    6dac:	mov    -0x50(%rbp),%rax
    6db0:	mov    0xb4(%rax),%edx
    6db6:	mov    -0x40(%rbp),%eax
    6db9:	cmp    %eax,%edx
    6dbb:	jb     6dc2 <longest_match+0x2db>
/home/rgesteve/projects/zlib-1.2.11/build/../deflate.c:1375 (discriminator 1)
    6dbd:	mov    -0x40(%rbp),%eax
    6dc0:	jmp    6dcc <longest_match+0x2e5>
/home/rgesteve/projects/zlib-1.2.11/build/../deflate.c:1376
    6dc2:	mov    -0x50(%rbp),%rax
    6dc6:	mov    0xb4(%rax),%eax
/home/rgesteve/projects/zlib-1.2.11/build/../deflate.c:1377
    6dcc:	pop    %rbx
    6dcd:	pop    %r12
    6dcf:	pop    %r13
    6dd1:	pop    %r14
    6dd3:	pop    %r15
    6dd5:	pop    %rbp
    6dd6:	retq   

0000000000006dd7 <fill_window>:
fill_window():
/home/rgesteve/projects/zlib-1.2.11/build/../deflate.c:1484
    6dd7:	push   %rbp
    6dd8:	mov    %rsp,%rbp
    6ddb:	sub    $0x30,%rsp
    6ddf:	mov    %rdi,-0x28(%rbp)
/home/rgesteve/projects/zlib-1.2.11/build/../deflate.c:1487
    6de3:	mov    -0x28(%rbp),%rax
    6de7:	mov    0x50(%rax),%eax
    6dea:	mov    %eax,-0x18(%rbp)
/home/rgesteve/projects/zlib-1.2.11/build/../deflate.c:1492
    6ded:	mov    -0x28(%rbp),%rax
    6df1:	mov    0x68(%rax),%rax
    6df5:	mov    %eax,%edx
    6df7:	mov    -0x28(%rbp),%rax
    6dfb:	mov    0xb4(%rax),%eax
    6e01:	sub    %eax,%edx
    6e03:	mov    -0x28(%rbp),%rax
    6e07:	mov    0xac(%rax),%eax
    6e0d:	sub    %eax,%edx
    6e0f:	mov    %edx,%eax
    6e11:	mov    %eax,-0x20(%rbp)
/home/rgesteve/projects/zlib-1.2.11/build/../deflate.c:1510
    6e14:	mov    -0x28(%rbp),%rax
    6e18:	mov    0xac(%rax),%edx
    6e1e:	mov    -0x28(%rbp),%rax
    6e22:	mov    0x50(%rax),%ecx
    6e25:	mov    -0x18(%rbp),%eax
    6e28:	add    %ecx,%eax
    6e2a:	sub    $0x106,%eax
    6e2f:	cmp    %eax,%edx
    6e31:	jb     6ec4 <fill_window+0xed>
/home/rgesteve/projects/zlib-1.2.11/build/../deflate.c:1512
    6e37:	mov    -0x18(%rbp),%eax
    6e3a:	sub    -0x20(%rbp),%eax
    6e3d:	mov    %eax,%esi
    6e3f:	mov    -0x28(%rbp),%rax
    6e43:	mov    0x60(%rax),%rdx
    6e47:	mov    -0x18(%rbp),%eax
    6e4a:	lea    (%rdx,%rax,1),%rcx
    6e4e:	mov    -0x28(%rbp),%rax
    6e52:	mov    0x60(%rax),%rax
    6e56:	mov    %rsi,%rdx
    6e59:	mov    %rcx,%rsi
    6e5c:	mov    %rax,%rdi
    6e5f:	callq  2210 <memcpy@plt>
/home/rgesteve/projects/zlib-1.2.11/build/../deflate.c:1513
    6e64:	mov    -0x28(%rbp),%rax
    6e68:	mov    0xb0(%rax),%eax
    6e6e:	sub    -0x18(%rbp),%eax
    6e71:	mov    %eax,%edx
    6e73:	mov    -0x28(%rbp),%rax
    6e77:	mov    %edx,0xb0(%rax)
/home/rgesteve/projects/zlib-1.2.11/build/../deflate.c:1514
    6e7d:	mov    -0x28(%rbp),%rax
    6e81:	mov    0xac(%rax),%eax
    6e87:	sub    -0x18(%rbp),%eax
    6e8a:	mov    %eax,%edx
    6e8c:	mov    -0x28(%rbp),%rax
    6e90:	mov    %edx,0xac(%rax)
/home/rgesteve/projects/zlib-1.2.11/build/../deflate.c:1515
    6e96:	mov    -0x28(%rbp),%rax
    6e9a:	mov    0x98(%rax),%rdx
    6ea1:	mov    -0x18(%rbp),%eax
    6ea4:	sub    %rax,%rdx
    6ea7:	mov    -0x28(%rbp),%rax
    6eab:	mov    %rdx,0x98(%rax)
/home/rgesteve/projects/zlib-1.2.11/build/../deflate.c:1516
    6eb2:	mov    -0x28(%rbp),%rax
    6eb6:	mov    %rax,%rdi
    6eb9:	callq  3dd9 <slide_hash>
/home/rgesteve/projects/zlib-1.2.11/build/../deflate.c:1517
    6ebe:	mov    -0x18(%rbp),%eax
    6ec1:	add    %eax,-0x20(%rbp)
/home/rgesteve/projects/zlib-1.2.11/build/../deflate.c:1519
    6ec4:	mov    -0x28(%rbp),%rax
    6ec8:	mov    (%rax),%rax
    6ecb:	mov    0x8(%rax),%eax
    6ece:	test   %eax,%eax
    6ed0:	je     70f0 <fill_window+0x319>
/home/rgesteve/projects/zlib-1.2.11/build/../deflate.c:1534
    6ed6:	mov    -0x28(%rbp),%rax
    6eda:	mov    0x60(%rax),%rdx
    6ede:	mov    -0x28(%rbp),%rax
    6ee2:	mov    0xac(%rax),%eax
    6ee8:	mov    %eax,%ecx
    6eea:	mov    -0x28(%rbp),%rax
    6eee:	mov    0xb4(%rax),%eax
    6ef4:	mov    %eax,%eax
    6ef6:	add    %rcx,%rax
    6ef9:	lea    (%rdx,%rax,1),%rcx
    6efd:	mov    -0x28(%rbp),%rax
    6f01:	mov    (%rax),%rax
    6f04:	mov    -0x20(%rbp),%edx
    6f07:	mov    %rcx,%rsi
    6f0a:	mov    %rax,%rdi
    6f0d:	callq  6854 <read_buf>
    6f12:	mov    %eax,-0x14(%rbp)
/home/rgesteve/projects/zlib-1.2.11/build/../deflate.c:1535
    6f15:	mov    -0x28(%rbp),%rax
    6f19:	mov    0xb4(%rax),%edx
    6f1f:	mov    -0x14(%rbp),%eax
    6f22:	add    %eax,%edx
    6f24:	mov    -0x28(%rbp),%rax
    6f28:	mov    %edx,0xb4(%rax)
/home/rgesteve/projects/zlib-1.2.11/build/../deflate.c:1538
    6f2e:	mov    -0x28(%rbp),%rax
    6f32:	mov    0xb4(%rax),%edx
    6f38:	mov    -0x28(%rbp),%rax
    6f3c:	mov    0x172c(%rax),%eax
    6f42:	add    %edx,%eax
    6f44:	cmp    $0x2,%eax
    6f47:	jbe    70cb <fill_window+0x2f4>
/home/rgesteve/projects/zlib-1.2.11/build/../deflate.c:1539
    6f4d:	mov    -0x28(%rbp),%rax
    6f51:	mov    0xac(%rax),%edx
    6f57:	mov    -0x28(%rbp),%rax
    6f5b:	mov    0x172c(%rax),%eax
    6f61:	sub    %eax,%edx
    6f63:	mov    %edx,%eax
    6f65:	mov    %eax,-0x1c(%rbp)
/home/rgesteve/projects/zlib-1.2.11/build/../deflate.c:1540
    6f68:	mov    -0x28(%rbp),%rax
    6f6c:	mov    0x60(%rax),%rdx
    6f70:	mov    -0x1c(%rbp),%eax
    6f73:	add    %rdx,%rax
    6f76:	movzbl (%rax),%eax
    6f79:	movzbl %al,%edx
    6f7c:	mov    -0x28(%rbp),%rax
    6f80:	mov    %edx,0x80(%rax)
/home/rgesteve/projects/zlib-1.2.11/build/../deflate.c:1541
    6f86:	mov    -0x28(%rbp),%rax
    6f8a:	mov    0x80(%rax),%edx
    6f90:	mov    -0x28(%rbp),%rax
    6f94:	mov    0x90(%rax),%eax
    6f9a:	mov    %eax,%ecx
    6f9c:	shl    %cl,%edx
    6f9e:	mov    %edx,%ecx
    6fa0:	mov    -0x28(%rbp),%rax
    6fa4:	mov    0x60(%rax),%rax
    6fa8:	mov    -0x1c(%rbp),%edx
    6fab:	add    $0x1,%edx
    6fae:	mov    %edx,%edx
    6fb0:	add    %rdx,%rax
    6fb3:	movzbl (%rax),%eax
    6fb6:	movzbl %al,%eax
    6fb9:	xor    %eax,%ecx
    6fbb:	mov    %ecx,%edx
    6fbd:	mov    -0x28(%rbp),%rax
    6fc1:	mov    0x8c(%rax),%eax
    6fc7:	and    %eax,%edx
    6fc9:	mov    -0x28(%rbp),%rax
    6fcd:	mov    %edx,0x80(%rax)
/home/rgesteve/projects/zlib-1.2.11/build/../deflate.c:1545
    6fd3:	jmpq   70b6 <fill_window+0x2df>
/home/rgesteve/projects/zlib-1.2.11/build/../deflate.c:1546
    6fd8:	mov    -0x28(%rbp),%rax
    6fdc:	mov    0x80(%rax),%edx
    6fe2:	mov    -0x28(%rbp),%rax
    6fe6:	mov    0x90(%rax),%eax
    6fec:	mov    %eax,%ecx
    6fee:	shl    %cl,%edx
    6ff0:	mov    %edx,%ecx
    6ff2:	mov    -0x28(%rbp),%rax
    6ff6:	mov    0x60(%rax),%rax
    6ffa:	mov    -0x1c(%rbp),%edx
    6ffd:	add    $0x2,%edx
    7000:	mov    %edx,%edx
    7002:	add    %rdx,%rax
    7005:	movzbl (%rax),%eax
    7008:	movzbl %al,%eax
    700b:	xor    %eax,%ecx
    700d:	mov    %ecx,%edx
    700f:	mov    -0x28(%rbp),%rax
    7013:	mov    0x8c(%rax),%eax
    7019:	and    %eax,%edx
    701b:	mov    -0x28(%rbp),%rax
    701f:	mov    %edx,0x80(%rax)
/home/rgesteve/projects/zlib-1.2.11/build/../deflate.c:1548
    7025:	mov    -0x28(%rbp),%rax
    7029:	mov    0x78(%rax),%rdx
    702d:	mov    -0x28(%rbp),%rax
    7031:	mov    0x80(%rax),%eax
    7037:	mov    %eax,%eax
    7039:	add    %rax,%rax
    703c:	lea    (%rdx,%rax,1),%rcx
    7040:	mov    -0x28(%rbp),%rax
    7044:	mov    0x70(%rax),%rdx
    7048:	mov    -0x28(%rbp),%rax
    704c:	mov    0x58(%rax),%eax
    704f:	and    -0x1c(%rbp),%eax
    7052:	mov    %eax,%eax
    7054:	add    %rax,%rax
    7057:	add    %rax,%rdx
    705a:	movzwl (%rcx),%eax
    705d:	mov    %ax,(%rdx)
/home/rgesteve/projects/zlib-1.2.11/build/../deflate.c:1550
    7060:	mov    -0x28(%rbp),%rax
    7064:	mov    0x78(%rax),%rdx
    7068:	mov    -0x28(%rbp),%rax
    706c:	mov    0x80(%rax),%eax
    7072:	mov    %eax,%eax
    7074:	add    %rax,%rax
    7077:	add    %rdx,%rax
    707a:	mov    -0x1c(%rbp),%edx
    707d:	mov    %dx,(%rax)
/home/rgesteve/projects/zlib-1.2.11/build/../deflate.c:1551
    7080:	addl   $0x1,-0x1c(%rbp)
/home/rgesteve/projects/zlib-1.2.11/build/../deflate.c:1552
    7084:	mov    -0x28(%rbp),%rax
    7088:	mov    0x172c(%rax),%eax
    708e:	lea    -0x1(%rax),%edx
    7091:	mov    -0x28(%rbp),%rax
    7095:	mov    %edx,0x172c(%rax)
/home/rgesteve/projects/zlib-1.2.11/build/../deflate.c:1553
    709b:	mov    -0x28(%rbp),%rax
    709f:	mov    0xb4(%rax),%edx
    70a5:	mov    -0x28(%rbp),%rax
    70a9:	mov    0x172c(%rax),%eax
    70af:	add    %edx,%eax
    70b1:	cmp    $0x2,%eax
    70b4:	jbe    70ca <fill_window+0x2f3>
/home/rgesteve/projects/zlib-1.2.11/build/../deflate.c:1545
    70b6:	mov    -0x28(%rbp),%rax
    70ba:	mov    0x172c(%rax),%eax
    70c0:	test   %eax,%eax
    70c2:	jne    6fd8 <fill_window+0x201>
    70c8:	jmp    70cb <fill_window+0x2f4>
/home/rgesteve/projects/zlib-1.2.11/build/../deflate.c:1554
    70ca:	nop
/home/rgesteve/projects/zlib-1.2.11/build/../deflate.c:1561
    70cb:	mov    -0x28(%rbp),%rax
    70cf:	mov    0xb4(%rax),%eax
    70d5:	cmp    $0x105,%eax
    70da:	ja     70f1 <fill_window+0x31a>
/home/rgesteve/projects/zlib-1.2.11/build/../deflate.c:1561 (discriminator 1)
    70dc:	mov    -0x28(%rbp),%rax
    70e0:	mov    (%rax),%rax
    70e3:	mov    0x8(%rax),%eax
    70e6:	test   %eax,%eax
    70e8:	jne    6ded <fill_window+0x16>
    70ee:	jmp    70f1 <fill_window+0x31a>
/home/rgesteve/projects/zlib-1.2.11/build/../deflate.c:1519
    70f0:	nop
/home/rgesteve/projects/zlib-1.2.11/build/../deflate.c:1570
    70f1:	mov    -0x28(%rbp),%rax
    70f5:	mov    0x1738(%rax),%rdx
    70fc:	mov    -0x28(%rbp),%rax
    7100:	mov    0x68(%rax),%rax
    7104:	cmp    %rax,%rdx
    7107:	jae    7262 <fill_window+0x48b>
/home/rgesteve/projects/zlib-1.2.11/build/../deflate.c:1571
    710d:	mov    -0x28(%rbp),%rax
    7111:	mov    0xac(%rax),%eax
    7117:	mov    %eax,%edx
    7119:	mov    -0x28(%rbp),%rax
    711d:	mov    0xb4(%rax),%eax
    7123:	mov    %eax,%eax
    7125:	add    %rdx,%rax
    7128:	mov    %rax,-0x8(%rbp)
/home/rgesteve/projects/zlib-1.2.11/build/../deflate.c:1574
    712c:	mov    -0x28(%rbp),%rax
    7130:	mov    0x1738(%rax),%rax
    7137:	cmp    %rax,-0x8(%rbp)
    713b:	jbe    719f <fill_window+0x3c8>
/home/rgesteve/projects/zlib-1.2.11/build/../deflate.c:1578
    713d:	mov    -0x28(%rbp),%rax
    7141:	mov    0x68(%rax),%rax
    7145:	sub    -0x8(%rbp),%rax
    7149:	mov    %rax,-0x10(%rbp)
/home/rgesteve/projects/zlib-1.2.11/build/../deflate.c:1579
    714d:	cmpq   $0x102,-0x10(%rbp)
    7155:	jbe    715f <fill_window+0x388>
/home/rgesteve/projects/zlib-1.2.11/build/../deflate.c:1580
    7157:	movq   $0x102,-0x10(%rbp)
/home/rgesteve/projects/zlib-1.2.11/build/../deflate.c:1581
    715f:	mov    -0x10(%rbp),%rax
    7163:	mov    %eax,%ecx
    7165:	mov    -0x28(%rbp),%rax
    7169:	mov    0x60(%rax),%rdx
    716d:	mov    -0x8(%rbp),%rax
    7171:	add    %rdx,%rax
    7174:	mov    %rcx,%rdx
    7177:	mov    $0x0,%esi
    717c:	mov    %rax,%rdi
    717f:	callq  2190 <memset@plt>
/home/rgesteve/projects/zlib-1.2.11/build/../deflate.c:1582
    7184:	mov    -0x8(%rbp),%rdx
    7188:	mov    -0x10(%rbp),%rax
    718c:	add    %rax,%rdx
    718f:	mov    -0x28(%rbp),%rax
    7193:	mov    %rdx,0x1738(%rax)
/home/rgesteve/projects/zlib-1.2.11/build/../deflate.c:1599
    719a:	jmpq   7262 <fill_window+0x48b>
/home/rgesteve/projects/zlib-1.2.11/build/../deflate.c:1584
    719f:	mov    -0x28(%rbp),%rax
    71a3:	mov    0x1738(%rax),%rax
    71aa:	mov    -0x8(%rbp),%rdx
    71ae:	add    $0x102,%rdx
    71b5:	cmp    %rdx,%rax
    71b8:	jae    7262 <fill_window+0x48b>
/home/rgesteve/projects/zlib-1.2.11/build/../deflate.c:1589
    71be:	mov    -0x28(%rbp),%rax
    71c2:	mov    0x1738(%rax),%rax
    71c9:	mov    -0x8(%rbp),%rdx
    71cd:	sub    %rax,%rdx
    71d0:	mov    %rdx,%rax
    71d3:	add    $0x102,%rax
    71d9:	mov    %rax,-0x10(%rbp)
/home/rgesteve/projects/zlib-1.2.11/build/../deflate.c:1590
    71dd:	mov    -0x28(%rbp),%rax
    71e1:	mov    0x68(%rax),%rdx
    71e5:	mov    -0x28(%rbp),%rax
    71e9:	mov    0x1738(%rax),%rax
    71f0:	sub    %rax,%rdx
    71f3:	mov    %rdx,%rax
    71f6:	cmp    %rax,-0x10(%rbp)
    71fa:	jbe    7219 <fill_window+0x442>
/home/rgesteve/projects/zlib-1.2.11/build/../deflate.c:1591
    71fc:	mov    -0x28(%rbp),%rax
    7200:	mov    0x68(%rax),%rdx
    7204:	mov    -0x28(%rbp),%rax
    7208:	mov    0x1738(%rax),%rax
    720f:	sub    %rax,%rdx
    7212:	mov    %rdx,%rax
    7215:	mov    %rax,-0x10(%rbp)
/home/rgesteve/projects/zlib-1.2.11/build/../deflate.c:1592
    7219:	mov    -0x10(%rbp),%rax
    721d:	mov    %eax,%ecx
    721f:	mov    -0x28(%rbp),%rax
    7223:	mov    0x60(%rax),%rdx
    7227:	mov    -0x28(%rbp),%rax
    722b:	mov    0x1738(%rax),%rax
    7232:	add    %rdx,%rax
    7235:	mov    %rcx,%rdx
    7238:	mov    $0x0,%esi
    723d:	mov    %rax,%rdi
    7240:	callq  2190 <memset@plt>
